 bootx64

 Timestamp is 67b972cd (Sat Feb 22 00:46:37 2025)

 Preferred load address is 0000000180000000

 Start         Length     Name                   Class
 0001:00000000 0000cec0H .text$mn                CODE
 0001:0000cec0 000004b0H .text$mn$21             CODE
 0001:0000d370 00000f8aH .text$s                 CODE
 0002:00000000 000000c0H .idata$5                DATA
 0002:000000c0 00000168H .rdata                  DATA
 0002:00000228 00000980H .xdata                  DATA
 0003:00000000 00000080H .data                   DATA
 0003:00000080 0000047eH .bss                    DATA
 0004:00000000 00000894H .pdata                  DATA
 0005:00000000 00000014H .idata$2                DATA
 0005:00000014 00000014H .idata$3                DATA
 0005:00000028 000000b8H .idata$4                DATA
 0005:000000e0 00000214H .idata$6                DATA

  Address         Publics by Value              Rva+Base               Lib:Object

 0000:00000000       __AbsoluteZero             0000000000000000     <absolute>
 0000:00000000       __arm64x_extra_rfe_table   0000000000000000     <absolute>
 0000:00000000       __arm64x_extra_rfe_table_size 0000000000000000     <absolute>
 0000:00000000       __arm64x_native_entrypoint 0000000000000000     <absolute>
 0000:00000000       __arm64x_redirection_metadata 0000000000000000     <absolute>
 0000:00000000       __arm64x_redirection_metadata_count 0000000000000000     <absolute>
 0000:00000000       __dynamic_value_reloc_table 0000000000000000     <absolute>
 0000:00000000       __enclave_config           0000000000000000     <absolute>
 0000:00000000       __guard_check_icall_a64n_fptr 0000000000000000     <absolute>
 0000:00000000       __guard_eh_cont_count      0000000000000000     <absolute>
 0000:00000000       __guard_eh_cont_table      0000000000000000     <absolute>
 0000:00000000       __guard_fids_count         0000000000000000     <absolute>
 0000:00000000       __guard_fids_table         0000000000000000     <absolute>
 0000:00000000       __guard_iat_count          0000000000000000     <absolute>
 0000:00000000       __guard_iat_table          0000000000000000     <absolute>
 0000:00000000       __guard_longjmp_count      0000000000000000     <absolute>
 0000:00000000       __guard_longjmp_table      0000000000000000     <absolute>
 0000:00000000       __hybrid_auxiliary_delayload_iat 0000000000000000     <absolute>
 0000:00000000       __hybrid_auxiliary_delayload_iat_copy 0000000000000000     <absolute>
 0000:00000000       __hybrid_auxiliary_iat     0000000000000000     <absolute>
 0000:00000000       __hybrid_auxiliary_iat_copy 0000000000000000     <absolute>
 0000:00000000       __hybrid_code_map          0000000000000000     <absolute>
 0000:00000000       __hybrid_code_map_count    0000000000000000     <absolute>
 0000:00000000       __hybrid_image_info_bitfield 0000000000000000     <absolute>
 0000:00000000       __volatile_metadata        0000000000000000     <absolute>
 0000:00000000       __x64_code_ranges_to_entry_points 0000000000000000     <absolute>
 0000:00000000       __x64_code_ranges_to_entry_points_count 0000000000000000     <absolute>
 0000:00000100       __guard_flags              0000000000000100     <absolute>
 0001:00000000       WPP_RECORDER_SF            0000000180001000 f   mouse.obj
 0001:00000001       MouseClassReadCopyData     0000000180001001 f   mouse.obj
 0001:000000db       MouseClassDequeueRead      00000001800010db f   mouse.obj
 0001:0000012e       MouseClassServiceCallback  000000018000112e f   mouse.obj
 0001:0000060c       ?get_bone_position@node@cs2@@YAH_KHPEAUvec3@@@Z 000000018000160c f   cs2.obj
 0001:00000684       ?get_client_entity@entity@cs2@@YA_KH@Z 0000000180001684 f   cs2.obj
 0001:00000714       ?get_convar@engine@cs2@@YA_KPEBD@Z 0000000180001714 f   cs2.obj
 0001:000008b4       ?get_crosshairalpha@cs2@@YAHXZ 00000001800018b4 f   cs2.obj
 0001:000008f0       ?get_current_ms@engine@cs2@@YAKXZ 00000001800018f0 f   cs2.obj
 0001:00000988       ?get_dormant@node@cs2@@YAE_K@Z 0000000180001988 f   cs2.obj
 0001:000009c0       ?get_eye_angles@player@cs2@@YA?AUvec2@@_K@Z 00000001800019c0 f   cs2.obj
 0001:00000a08       ?get_eye_position@player@cs2@@YA?AUvec3@@_K@Z 0000000180001a08 f   cs2.obj
 0001:00000a50       ?get_fov_multipler@player@cs2@@YAM_K@Z 0000000180001a50 f   cs2.obj
 0001:00000a9c       ?get_health@player@cs2@@YAK_K@Z 0000000180001a9c f   cs2.obj
 0001:00000ad8       ?get_hwnd@sdl@cs2@@YA_K_K@Z 0000000180001ad8 f   cs2.obj
 0001:00000d38       ?get_interface_function@cs2@@YA_K_KK@Z 0000000180001d38 f   cs2.obj
 0001:00000da8       ?get_life_state@player@cs2@@YAH_K@Z 0000000180001da8 f   cs2.obj
 0001:00000de4       ?get_local_player_controller@entity@cs2@@YA_KXZ 0000000180001de4 f   cs2.obj
 0001:00000e20       ?get_node@player@cs2@@YA_K_K@Z 0000000180001e20 f   cs2.obj
 0001:00000e60       ?get_origin@node@cs2@@YA?AUvec3@@_K@Z 0000000180001e60 f   cs2.obj
 0001:00000eb4       ?get_origin@player@cs2@@YA?AUvec3@@_K@Z 0000000180001eb4 f   cs2.obj
 0001:00000f08       ?get_player@entity@cs2@@YA_K_K@Z 0000000180001f08 f   cs2.obj
 0001:00000fcc       ?get_sensitivity@mouse@cs2@@YAMXZ 0000000180001fcc f   cs2.obj
 0001:0000101c       ?get_shots_fired@player@cs2@@YAK_K@Z 000000018000201c f   cs2.obj
 0001:00001058       ?get_team_num@player@cs2@@YAK_K@Z 0000000180002058 f   cs2.obj
 0001:00001094       ?get_vec_punch@player@cs2@@YA?AUvec2@@_K@Z 0000000180002094 f   cs2.obj
 0001:00001120       ?get_vec_view@player@cs2@@YAM_K@Z 0000000180002120 f   cs2.obj
 0001:00001170       ?get_viewangle@player@cs2@@YA?AUvec2@@_K@Z 0000000180002170 f   cs2.obj
 0001:000011b8       ?get_viewmatrix@engine@cs2@@YA?AUview_matrix_t@@XZ 00000001800021b8 f   cs2.obj
 0001:000011f4       ?get_weapon_class@player@cs2@@YA?AW4WEAPON_CLASS@2@_K@Z 00000001800021f4 f   cs2.obj
 0001:00001364       ?get_window@sdl@cs2@@YA_KXZ 0000000180002364 f   cs2.obj
 0001:000013a0       ?get_window_data@sdl@cs2@@YA_K_K@Z 00000001800023a0 f   cs2.obj
 0001:000013dc       ?get_window_info@sdl@cs2@@YAH_KPEAUWINDOW_INFO@2@@Z 00000001800023dc f   cs2.obj
 0001:00002dd8       ?is_button_down@input@cs2@@YAHK@Z 0000000180003dd8 f   cs2.obj
 0001:00002e30       ?is_ffa@gamemode@cs2@@YAHXZ 0000000180003e30 f   cs2.obj
 0001:00002e74       ?is_player@entity@cs2@@YAH_K@Z 0000000180003e74 f   cs2.obj
 0001:00002e80       ?is_valid@player@cs2@@YAH_K0@Z 0000000180003e80 f   cs2.obj
 0001:00002edc       ?running@cs2@@YAHXZ        0000000180003edc f   cs2.obj
 0001:00003410       ?get_fov@math@@YAMUvec2@@Uvec3@@@Z 0000000180004410 f i cs2features.obj
 0001:000038cc       ?qatan2@math@@YAMMM@Z      00000001800048cc f i cs2features.obj
 0001:000039ac       ?qcos@math@@YANN@Z         00000001800049ac f i cs2features.obj
 0001:00003a60       ?qsin@math@@YANN@Z         0000000180004a60 f i cs2features.obj
 0001:00003b10       ?reset@features@cs2@@YAXXZ 0000000180004b10 f   cs2features.obj
 0001:00003b50       ?run@features@cs2@@YAXXZ   0000000180004b50 f   cs2features.obj
 0001:00004254       ?update_settings@features@cs2@@YAXXZ 0000000180005254 f i cs2features.obj
 0001:00004508       ?vec_angles@math@@YAXUvec3@@PEAU2@@Z 0000000180005508 f i cs2features.obj
 0001:0000464c       ?vec_atd@math@@YA?AUvec3@@U2@@Z 000000018000564c f i cs2features.obj
 0001:0000470c       ?vec_clamp@math@@YAXPEAUvec3@@@Z 000000018000570c f i cs2features.obj
 0001:000047a4       ?vec_delta@math@@YA?AUvec3@@U2@0@Z 00000001800057a4 f i cs2features.obj
 0001:00004870       ?vec_min_max@math@@YA_NUvec3@@000M@Z 0000000180005870 f i cs2features.obj
 0001:00004b44       ?world_to_screen@math@@YA_NAEBUvec2@@AEBUvec3@@AEAU3@Uview_matrix_t@@@Z 0000000180005b44 f i cs2features.obj
 0001:00004c54       ?contains_player@teams@csgo@@YAHKHH@Z 0000000180005c54 f   csgo.obj
 0001:0000568c       ?get_bone_position@player@csgo@@YAHKHPEAY123M@Z 000000018000668c f   csgo.obj
 0001:000056fc       ?get_button_state@input@csgo@@YAHK@Z 00000001800066fc f   csgo.obj
 0001:00005750       ?get_client_entity@entity@csgo@@YAKH@Z 0000000180006750 f   csgo.obj
 0001:00005968       ?get_crosshair_id@player@csgo@@YAHK@Z 0000000180006968 f   csgo.obj
 0001:000059a0       ?get_crosshairalpha@engine@csgo@@YAHXZ 00000001800069a0 f   csgo.obj
 0001:000059ac       ?get_current_tick@engine@csgo@@YAKXZ 00000001800069ac f   csgo.obj
 0001:000059e8       ?get_dormant@player@csgo@@YAHK@Z 00000001800069e8 f   csgo.obj
 0001:00005a30       ?get_eye_position@player@csgo@@YA?AUvec3@@K@Z 0000000180006a30 f   csgo.obj
 0001:00005ae0       ?get_fov@player@csgo@@YAHK@Z 0000000180006ae0 f   csgo.obj
 0001:00005b18       ?get_health@player@csgo@@YAHK@Z 0000000180006b18 f   csgo.obj
 0001:00005b50       ?get_hwnd@input@csgo@@YAKXZ 0000000180006b50 f   csgo.obj
 0001:00005dc4       ?get_life_state@player@csgo@@YAHK@Z 0000000180006dc4 f   csgo.obj
 0001:00005e0c       ?get_local_player@teams@csgo@@YAKXZ 0000000180006e0c f   csgo.obj
 0001:00005e44       ?get_origin@player@csgo@@YA?AUvec3@@K@Z 0000000180006e44 f   csgo.obj
 0001:00005e78       ?get_player@teams@csgo@@YAKKH@Z 0000000180006e78 f   csgo.obj
 0001:00005eb4       ?get_player_count@teams@csgo@@YAHK@Z 0000000180006eb4 f   csgo.obj
 0001:00005eec       ?get_player_id@player@csgo@@YAHK@Z 0000000180006eec f   csgo.obj
 0001:00005f20       ?get_player_list@teams@csgo@@YAKK@Z 0000000180006f20 f   csgo.obj
 0001:00005f58       ?get_screen_pos@engine@csgo@@YA?AUvec2_i@@XZ 0000000180006f58 f   csgo.obj
 0001:00005f90       ?get_screen_size@engine@csgo@@YA?AUvec2_i@@XZ 0000000180006f90 f   csgo.obj
 0001:00005fc4       ?get_sensitivity@engine@csgo@@YAMXZ 0000000180006fc4 f   csgo.obj
 0001:00006008       ?get_shots_fired@player@csgo@@YAHK@Z 0000000180007008 f   csgo.obj
 0001:00006040       ?get_team@teams@csgo@@YAKKH@Z 0000000180007040 f   csgo.obj
 0001:00006074       ?get_team_count@teams@csgo@@YAHXZ 0000000180007074 f   csgo.obj
 0001:000060ac       ?get_team_list@teams@csgo@@YAKXZ 00000001800070ac f   csgo.obj
 0001:000060e4       ?get_team_num@player@csgo@@YAHK@Z 00000001800070e4 f   csgo.obj
 0001:0000611c       ?get_team_num@teams@csgo@@YAHK@Z 000000018000711c f   csgo.obj
 0001:00006154       ?get_vec_punch@player@csgo@@YA?AUvec2@@K@Z 0000000180007154 f   csgo.obj
 0001:00006194       ?get_viewangles@player@csgo@@YA?AUvec2@@K@Z 0000000180007194 f   csgo.obj
 0001:000061e4       ?get_viewmatrix@engine@csgo@@YA?AUview_matrix_t@@XZ 00000001800071e4 f   csgo.obj
 0001:0000621c       ?get_weapon_class@player@csgo@@YA?AW4WEAPON_CLASS@2@K@Z 000000018000721c f   csgo.obj
 0001:000067d8       ?get_weapon_handle@player@csgo@@YAKK@Z 00000001800077d8 f   csgo.obj
 0001:00006828       ?has_defuser@player@csgo@@YAHK@Z 0000000180007828 f   csgo.obj
 0001:00007108       ?is_defusing@player@csgo@@YAHK@Z 0000000180008108 f   csgo.obj
 0001:00007140       ?is_gamemode_ffa@engine@csgo@@YAHXZ 0000000180008140 f   csgo.obj
 0001:0000714c       ?is_valid@player@csgo@@YAHK@Z 000000018000814c f   csgo.obj
 0001:00007194       ?is_visible@player@csgo@@YAHKK@Z 0000000180008194 f   csgo.obj
 0001:000071f4       ?net_graphcolor@engine@csgo@@YAXEEEE@Z 00000001800081f4 f   csgo.obj
 0001:00007230       ?running@csgo@@YAHXZ       0000000180008230 f   csgo.obj
 0001:00007e1c       ?reset@features@csgo@@YAXXZ 0000000180008e1c f   csgofeatures.obj
 0001:00007e44       ?run@features@csgo@@YAXXZ  0000000180008e44 f   csgofeatures.obj
 0001:00008644       ?update_settings@features@csgo@@YAXXZ 0000000180009644 f i csgofeatures.obj
 0001:00008d08       ?get_bone_position@player@apex@@YAH_KHPEAUvec3@@@Z 0000000180009d08 f   apex.obj
 0001:00008e20       ?get_bullet_speed@weapon@apex@@YAM_K@Z 0000000180009e20 f   apex.obj
 0001:00008e6c       ?get_camera_origin@player@apex@@YA?AUvec3@@_K@Z 0000000180009e6c f   apex.obj
 0001:00008ec4       ?get_client_entity@entity@apex@@YA_KH@Z 0000000180009ec4 f   apex.obj
 0001:00008f08       ?get_controller_sensitivity@apex@@YAHXZ 0000000180009f08 f   apex.obj
 0001:00008f20       ?get_convar@engine@apex@@YA_KPEBD@Z 0000000180009f20 f   apex.obj
 0001:00009078       ?get_current_tick@engine@apex@@YAHXZ 000000018000a078 f   apex.obj
 0001:000090b8       ?get_float@cvar@apex@@YAM_K@Z 000000018000a0b8 f   apex.obj
 0001:00009100       ?get_health@player@apex@@YAH_K@Z 000000018000a100 f   apex.obj
 0001:0000913c       ?get_hwnd@engine@apex@@YA_KXZ 000000018000a13c f   apex.obj
 0001:0000917c       ?get_int@cvar@apex@@YAH_K@Z 000000018000a17c f   apex.obj
 0001:000091b0       ?get_local_player@entity@apex@@YA_KXZ 000000018000a1b0 f   apex.obj
 0001:000091ec       ?get_max_health@player@apex@@YAH_K@Z 000000018000a1ec f   apex.obj
 0001:000093d8       ?get_origin@player@apex@@YA?AUvec3@@_K@Z 000000018000a3d8 f   apex.obj
 0001:00009438       ?get_sensitivity@mouse@apex@@YAMXZ 000000018000a438 f   apex.obj
 0001:00009444       ?get_team_num@player@apex@@YAH_K@Z 000000018000a444 f   apex.obj
 0001:00009480       ?get_velocity@player@apex@@YA?AUvec3@@_K@Z 000000018000a480 f   apex.obj
 0001:000094e0       ?get_viewangles@player@apex@@YA?AUvec2@@_K@Z 000000018000a4e0 f   apex.obj
 0001:00009524       ?get_viewmatrix@engine@apex@@YA?AUview_matrix_t@@XZ 000000018000a524 f   apex.obj
 0001:0000961c       ?get_weapon@player@apex@@YA_K_K@Z 000000018000a61c f   apex.obj
 0001:00009660       ?get_window_info@engine@apex@@YAHPEAUWINDOW_INFO@2@@Z 000000018000a660 f   apex.obj
 0001:00009708       ?get_zoom_fov@weapon@apex@@YAM_K@Z 000000018000a708 f   apex.obj
 0001:00009ce0       ?is_button_down@input@apex@@YAHK@Z 000000018000ace0 f   apex.obj
 0001:00009d38       ?is_valid@player@apex@@YAH_K@Z 000000018000ad38 f   apex.obj
 0001:00009d8c       ?is_zoomed_in@player@apex@@YAH_K@Z 000000018000ad8c f   apex.obj
 0001:00009dc8       ?running@apex@@YAHXZ       000000018000adc8 f   apex.obj
 0001:00009dd0       ?CalcAngle@math@@YA?AUvec3@@U2@0@Z 000000018000add0 f i apexfeatures.obj
 0001:0000a4b4       ?reset@features@apex@@YAXXZ 000000018000b4b4 f   apexfeatures.obj
 0001:0000a4e8       ?run@features@apex@@YAXXZ  000000018000b4e8 f   apexfeatures.obj
 0001:0000aa3c       ?update_settings@features@apex@@YAXXZ 000000018000ba3c f i apexfeatures.obj
 0001:0000ab48       ?FindPatternEx@utils@@YA_K_K0PEAEPEAD@Z 000000018000bb48 f i vm.obj
 0001:0000abc4       ?close@vm@@YAXPEAX@Z       000000018000bbc4 f   vm.obj
 0001:0000abc8       ?dump_module@vm@@YAPEAXPEAX_KW4VM_MODULE_TYPE@@@Z 000000018000bbc8 f   vm.obj
 0001:0000abd0       ?dump_module@vmwin@@YAPEAXPEAX_KW4VM_MODULE_TYPE@@@Z 000000018000bbd0 f i vm.obj
 0001:0000ae60       ?free_module@vm@@YAXPEAX@Z 000000018000be60 f   vm.obj
 0001:0000ae70       ?get_module@vm@@YA_KPEAXPEBD@Z 000000018000be70 f   vm.obj
 0001:0000ae78       ?get_module@vmwin@@YA_KPEAXPEBD@Z 000000018000be78 f i vm.obj
 0001:0000b070       ?get_module_export@vm@@YA_KPEAX_KPEBD@Z 000000018000c070 f   vm.obj
 0001:0000b078       ?get_module_export@vmwin@@YA_KPEAX_KPEBD@Z 000000018000c078 f   vm.obj
 0001:0000b2c0       ?get_target_os@vm@@YA?AW4VmOs@@XZ 000000018000c2c0 f   vm.obj
 0001:0000b2c4       ?open_process@vm@@YAPEAXPEBD@Z 000000018000c2c4 f   vm.obj
 0001:0000b2c4       ?open_process_ex@vm@@YAPEAXPEBD0@Z 000000018000c2c4 f   vm.obj
 0001:0000b2d8       ?process_exists@vm@@YAHPEBD@Z 000000018000c2d8 f   vm.obj
 0001:0000b3b0       ?read@vm@@YAHPEAX_K01@Z    000000018000c3b0 f   vm.obj
 0001:0000b434       ?read_i32w@vmwin@@YA_KPEAX_K@Z 000000018000c434 f i vm.obj
 0001:0000b460       ?read_i64@vm@@YA_KPEAX_K@Z 000000018000c460 f i vm.obj
 0001:0000b48c       ?running@vm@@YAHPEAX@Z     000000018000c48c f   vm.obj
 0001:0000b4b0       ?scan_pattern@vm@@YA_KPEAXPEBD1_K@Z 000000018000c4b0 f   vm.obj
 0001:0000b4b8       ?scan_pattern@vmwin@@YA_KPEAXPEBD1_K@Z 000000018000c4b8 f i vm.obj
 0001:0000b578       ?scan_pattern_direct@vm@@YA_KPEAX_KPEBD2K@Z 000000018000c578 f   vm.obj
 0001:0000b580       ?scan_pattern_direct@vmwin@@YA_KPEAX_KPEBD2K@Z 000000018000c580 f   vm.obj
 0001:0000b5ec       ?write@vm@@YAHPEAX_K01@Z   000000018000c5ec f   vm.obj
 0001:0000b670       ?DrawRect@gdi@@YAXPEAXJJJJEEE@Z 000000018000c670 f   gdi.obj
 0001:0000b758       ?FrameRect@gdi@@YA_NPEAUHDC__@@PEBUtagRECT@@PEAUHBRUSH__@@H@Z 000000018000c758 f   gdi.obj
 0001:0000b880       ?GetModuleEntry@@YA_KPEBG@Z 000000018000c880 f   gdi.obj
 0001:0000b8e0       ?GetProcAddressQ@@YA_K_KPEBD@Z 000000018000c8e0 f   gdi.obj
 0001:0000b980       ?init@gdi@@YAHXZ           000000018000c980 f   gdi.obj
 0001:0000bb28       ?DrawRect@client@@YAXPEAXHHHHEEE@Z 000000018000cb28 f   kernel.obj
 0001:0000bb30       ?PsGetThreadWin32ThreadHook@km@@YA_K_K@Z 000000018000cb30 f   kernel.obj
 0001:0000bc8c       ?hook@km@@YAH_K0PEA_K@Z    000000018000cc8c f   kernel.obj
 0001:0000bd10       ?initialize@km@@YAE_K@Z    000000018000cd10 f   kernel.obj
 0001:0000bdac       ?memcpy_impl@km@@YAHPEAXPEBX_K@Z 000000018000cdac f   kernel.obj
 0001:0000bde8       ?mouse1_down@client@@YAXXZ 000000018000cde8 f   kernel.obj
 0001:0000bdf8       ?mouse1_up@client@@YAXXZ   000000018000cdf8 f   kernel.obj
 0001:0000be08       ?mouse_move@client@@YAXHH@Z 000000018000ce08 f   kernel.obj
 0001:0000c144       ?EfiGetSystemTable@@YA_J_KPEA_K1@Z 000000018000d144 f   main.obj
 0001:0000c25c       ?PressAnyKey@@YAXXZ        000000018000d25c f i main.obj
 0001:0000c344       ?RtlFindExportedRoutineByName@@YA_K_KPEBD@Z 000000018000d344 f   main.obj
 0001:0000c3e0       AllocateImage              000000018000d3e0 f   main.obj
 0001:0000c5f0       AllocatePagesHook          000000018000d5f0 f   main.obj
 0001:0000c720       EfiMain                    000000018000d720 f   main.obj
 0001:0000c94c       ExitBootServicesHook       000000018000d94c f   main.obj
 0001:0000ca9c       ?FindPattern@@YA_K_KPEAE1@Z 000000018000da9c f   utils.obj
 0001:0000cb54       ?FindPatternEx@@YAPEAXPEAE_K00@Z 000000018000db54 f   utils.obj
 0001:0000cbdc       ?GetExportByName@@YA_K_KPEBD@Z 000000018000dbdc f   utils.obj
 0001:0000cca4       ?MemCopy@@YAXPEAX0_K@Z     000000018000dca4 f   utils.obj
 0001:0000ccbc       ?SwapMemory2@@YAX_K0@Z     000000018000dcbc f   utils.obj
 0001:0000ccd0       ?SwapMemory@@YAX_K00@Z     000000018000dcd0 f   utils.obj
 0001:0000cd00       ?get_caller_base@@YA_K_K@Z 000000018000dd00 f   utils.obj
 0001:0000cd20       ?pe_resolve_imports@@YAH_K0@Z 000000018000dd20 f   utils.obj
 0001:0000cdc4       ?strcmp_imp@@YAHPEBD0@Z    000000018000ddc4 f   utils.obj
 0001:0000cdf0       __cpu_features_init        000000018000ddf0 f   ntoskrnl:cpuinfo.obj
 0001:0000cec0       memcpy                     000000018000dec0 f   ntoskrnl:memcpy.obj
 0001:0000cec0       memmove                    000000018000dec0 f   ntoskrnl:memcpy.obj
 0001:0000d180       memset                     000000018000e180 f   ntoskrnl:memset.obj
 0001:0000d180       memset_$fo_default$        000000018000e180     ntoskrnl:memset.obj
 0001:0000d2c0       __memset_repmovs           000000018000e2c0 f   ntoskrnl:memset.obj
 0001:0000d340       __memset_query             000000018000e340 f   ntoskrnl:memset.obj
 0001:0000d370       ??_C@_07GAOKNLIA@cs2?4exe@FNODOBFM@ 000000018000e370     cs2.obj
 0001:0000d380       ??_C@_03EMOPPKHG@cs2@FNODOBFM@ 000000018000e380     cs2.obj
 0001:0000d390       ??_C@_0L@PHFEFMEF@client?4dll@FNODOBFM@ 000000018000e390     cs2.obj
 0001:0000d3a0       ??_C@_0N@IFLPOHOA@libclient?4so@FNODOBFM@ 000000018000e3a0     cs2.obj
 0001:0000d3b0       ??_C@_0M@OCOPCHPD@engine2?4dll@FNODOBFM@ 000000018000e3b0     cs2.obj
 0001:0000d3c0       ??_C@_0O@HAAGNIIC@libengine2?4so@FNODOBFM@ 000000018000e3c0     cs2.obj
 0001:0000d3d0       ??_C@_08LMILNHCF@SDL3?4dll@FNODOBFM@ 000000018000e3d0     cs2.obj
 0001:0000d3e0       ??_C@_0N@OCGBOAIA@libSDL3?4so?40@FNODOBFM@ 000000018000e3e0     cs2.obj
 0001:0000d3f0       ??_C@_09LGKBAKDK@tier0?4dll@FNODOBFM@ 000000018000e3f0     cs2.obj
 0001:0000d400       ??_C@_0M@PPGIEDMC@libtier0?4so@FNODOBFM@ 000000018000e400     cs2.obj
 0001:0000d410       ??_C@_0BA@JBLHMOPO@inputsystem?4dll@FNODOBFM@ 000000018000e410     cs2.obj
 0001:0000d420       ??_C@_0BC@ECKKKEMM@libinputsystem?4so@FNODOBFM@ 000000018000e420     cs2.obj
 0001:0000d440       ??_C@_0BM@PKCAIGFC@GameResourceServiceClientV0@FNODOBFM@ 000000018000e440     cs2.obj
 0001:0000d460       ??_C@_0BF@JHCPPKDJ@SDL_GetKeyboardFocus@FNODOBFM@ 000000018000e460     cs2.obj
 0001:0000d480       ??_C@_0BC@LJFOIEBJ@SDL_GetMouseState@FNODOBFM@ 000000018000e480     cs2.obj
 0001:0000d4a0       ??_C@_0N@NIGFKCDE@VEngineCvar0@FNODOBFM@ 000000018000e4a0     cs2.obj
 0001:0000d4b0       ??_C@_0BE@GLOFDLNI@InputSystemVersion0@FNODOBFM@ 000000018000e4b0     cs2.obj
 0001:0000d4d0       ??_C@_0N@CBDBHGDD@xxx?$DP?$DP?$DP?$DPxxxxx@FNODOBFM@ 000000018000e4d0     cs2.obj
 0001:0000d4e0       ??_C@_0N@JKBENEDK@H?$ID?$DN?$AA?$AA?$AA?$AA?$AA?$AP?$JF?$MA?C@FNODOBFM@ 000000018000e4e0     cs2.obj
 0001:0000d4f0       ??_C@_0P@DOHOHNFG@Source2Client0@FNODOBFM@ 000000018000e4f0     cs2.obj
 0001:0000d500       ??_C@_0BC@GGMFPPBL@xxx?$DP?$DP?$DP?$DPxxx?$DP?$DP?$DP?$DPxxx@FNODOBFM@ 000000018000e500     cs2.obj
 0001:0000d520       ??_C@_0BC@GAIOJBKI@H?$IN?$AF?$AA?$AA?$AA?$AAL?$IN?$AF?$AA?$AA?$AA?$AAH?$IN?$AN@FNODOBFM@ 000000018000e520     cs2.obj
 0001:0000d540       ??_C@_0N@DKLBBBNJ@xxxxxx?$DP?$DP?$DP?$DPxx@FNODOBFM@ 000000018000e540     cs2.obj
 0001:0000d550       ??_C@_0N@JMBGFPBI@Hc?BH?$IN?$AN?$AA?$AA?$AA?$AAH?A@FNODOBFM@ 000000018000e550     cs2.obj
 0001:0000d560       ??_C@_0M@JFLMCFNC@sensitivity@FNODOBFM@ 000000018000e560     cs2.obj
 0001:0000d570       ??_C@_0BJ@COACFKBJ@mp_teammates_are_enemies@FNODOBFM@ 000000018000e570     cs2.obj
 0001:0000d590       ??_C@_0BC@IDDOAIMO@cl_crosshairalpha@FNODOBFM@ 000000018000e590     cs2.obj
 0001:0000d5b0       ??_C@_0P@EMLNDDMK@MNetworkEnable@FNODOBFM@ 000000018000e5b0     cs2.obj
 0001:0000d5c0       ??_C@_09FOIALPOM@m_iHealth@FNODOBFM@ 000000018000e5c0     cs2.obj
 0001:0000d5d0       ??_C@_0L@OEKNBODE@m_iTeamNum@FNODOBFM@ 000000018000e5d0     cs2.obj
 0001:0000d5e0       ??_C@_07PBEAOGME@m_hPawn@FNODOBFM@ 000000018000e5e0     cs2.obj
 0001:0000d5f0       ??_C@_0M@GDCAJHLF@m_lifeState@FNODOBFM@ 000000018000e5f0     cs2.obj
 0001:0000d600       ??_C@_0BA@KMCCMGFD@m_vecViewOffset@FNODOBFM@ 000000018000e600     cs2.obj
 0001:0000d610       ??_C@_0BA@JHBGJIGI@m_aimPunchCache@FNODOBFM@ 000000018000e610     cs2.obj
 0001:0000d620       ??_C@_0O@BINGBKKN@m_iShotsFired@FNODOBFM@ 000000018000e620     cs2.obj
 0001:0000d630       ??_C@_0BJ@MMMALMGC@m_flFOVSensitivityAdjust@FNODOBFM@ 000000018000e630     cs2.obj
 0001:0000d650       ??_C@_0BB@IIGPPMBN@m_pGameSceneNode@FNODOBFM@ 000000018000e650     cs2.obj
 0001:0000d670       ??_C@_0L@EIFDMEFI@m_bDormant@FNODOBFM@ 000000018000e670     cs2.obj
 0001:0000d680       ??_C@_0N@NHCFOJFK@m_modelState@FNODOBFM@ 000000018000e680     cs2.obj
 0001:0000d690       ??_C@_0M@BAFECOKC@m_vecOrigin@FNODOBFM@ 000000018000e690     cs2.obj
 0001:0000d6a0       ??_C@_0N@BKGJBLBG@m_vOldOrigin@FNODOBFM@ 000000018000e6a0     cs2.obj
 0001:0000d6b0       ??_C@_0BC@FLHJOGFG@m_pClippingWeapon@FNODOBFM@ 000000018000e6b0     cs2.obj
 0001:0000d6d0       ??_C@_07DPGDFGBA@v_angle@FNODOBFM@ 000000018000e6d0     cs2.obj
 0001:0000d6e0       ??_C@_05LDKNOBJL@?4data@FNODOBFM@ 000000018000e6e0     cs2.obj
 0001:0000d6f0       ??_C@_0O@HHNOFAMN@m_bIsDefusing@FNODOBFM@ 000000018000e6f0     cs2.obj
 0001:0000d700       ??_C@_0BC@NIGEGIC@m_bPawnHasDefuser@FNODOBFM@ 000000018000e700     cs2.obj
 0001:0000d720       ??_C@_0BA@MIGFFMNM@m_hActiveWeapon@FNODOBFM@ 000000018000e720     cs2.obj
 0001:0000d730       ??_C@_0BC@LLFLAHKP@m_pWeaponServices@FNODOBFM@ 000000018000e730     cs2.obj
 0001:0000d750       ??_C@_0BA@OBHPCBFP@CreateInterface@FNODOBFM@ 000000018000e750     cs2.obj
 0001:0000d760       ??_C@_05BIPCPIBA@knife@FNODOBFM@ 000000018000e760     csgo.obj
 0001:0000d770       ??_C@_07NFBHKFPC@knife_t@FNODOBFM@ 000000018000e770     csgo.obj
 0001:0000d780       ??_C@_07JOIAFAEI@knifegg@FNODOBFM@ 000000018000e780     csgo.obj
 0001:0000d790       ??_C@_09MDJNEEPL@hegrenade@FNODOBFM@ 000000018000e790     csgo.obj
 0001:0000d7a0       ??_C@_09FHCANJKL@flashbang@FNODOBFM@ 000000018000e7a0     csgo.obj
 0001:0000d7b0       ??_C@_0N@LGLLMOFO@smokegrenade@FNODOBFM@ 000000018000e7b0     csgo.obj
 0001:0000d7c0       ??_C@_05BIGPPNGC@decoy@FNODOBFM@ 000000018000e7c0     csgo.obj
 0001:0000d7d0       ??_C@_07BGCKODOL@molotov@FNODOBFM@ 000000018000e7d0     csgo.obj
 0001:0000d7e0       ??_C@_0L@BOANDMBB@incgrenade@FNODOBFM@ 000000018000e7e0     csgo.obj
 0001:0000d7f0       ??_C@_02PBAFKAGD@c4@FNODOBFM@ 000000018000e7f0     csgo.obj
 0001:0000d800       ??_C@_05OIPMCNPN@ssg08@FNODOBFM@ 000000018000e800     csgo.obj
 0001:0000d810       ??_C@_07MLKHEOGC@hkp2000@FNODOBFM@ 000000018000e810     csgo.obj
 0001:0000d820       ??_C@_06BOLHOKHP@deagle@FNODOBFM@ 000000018000e820     csgo.obj
 0001:0000d830       ??_C@_04GHMLMJIP@p250@FNODOBFM@ 000000018000e830     csgo.obj
 0001:0000d840       ??_C@_05EHJKLNBO@elite@FNODOBFM@ 000000018000e840     csgo.obj
 0001:0000d850       ??_C@_09KEKPBIOE@fiveseven@FNODOBFM@ 000000018000e850     csgo.obj
 0001:0000d860       ??_C@_05KINDNLLC@glock@FNODOBFM@ 000000018000e860     csgo.obj
 0001:0000d870       ??_C@_04HNGCLBBP@tec9@FNODOBFM@ 000000018000e870     csgo.obj
 0001:0000d880       ??_C@_03CDKALHKG@awp@FNODOBFM@ 000000018000e880     csgo.obj
 0001:0000d890       ??_C@_06KMLOKGCE@scar20@FNODOBFM@ 000000018000e890     csgo.obj
 0001:0000d8a0       ??_C@_05EPACHGIN@g3sg1@FNODOBFM@ 000000018000e8a0     csgo.obj
 0001:0000d8b0       ??_C@_08NJBFDPPJ@csgo?4exe@FNODOBFM@ 000000018000e8b0     csgo.obj
 0001:0000d8c0       ??_C@_0N@NFPMGNKA@5EClient?4exe@FNODOBFM@ 000000018000e8c0     csgo.obj
 0001:0000d8d0       ??_C@_0M@LANJDPCC@5EArena?4exe@FNODOBFM@ 000000018000e8d0     csgo.obj
 0001:0000d8e0       ??_C@_0L@EMPDFJNI@engine?4dll@FNODOBFM@ 000000018000e8e0     csgo.obj
 0001:0000d8f0       ??_C@_0M@EINGCJHB@vstdlib?4dll@FNODOBFM@ 000000018000e8f0     csgo.obj
 0001:0000d900       ??_C@_0BK@JLAGAIAD@net_graphproportionalfont@FNODOBFM@ 000000018000e900     csgo.obj
 0001:0000d920       ??_C@_0L@IHHDNJLO@x?$DP?$DP?$DP?$DPxxxxx@FNODOBFM@ 000000018000e920     csgo.obj
 0001:0000d930       ??_C@_0L@GKHMNOFG@?h?$AA?$AA?$AA?$AA?$IF?$MAt?$BB_@FNODOBFM@ 000000018000e930     csgo.obj
 0001:0000d940       ??_C@_04ODPAOBIJ@xxxx@FNODOBFM@ 000000018000e940     csgo.obj
 0001:0000d950       ??_C@_04HNDJPKAN@?$DP?$PP?$DP?h@FNODOBFM@ 000000018000e950     csgo.obj
 0001:0000d960       ??_C@_05HDGBDIJL@xxxxx@FNODOBFM@ 000000018000e960     csgo.obj
 0001:0000d970       ??_C@_05LJBLPIID@?$IKG?$BC?$IL?$AN@FNODOBFM@ 000000018000e970     csgo.obj
 0001:0000d980       ??_C@_0M@LFGHFJDH@xx?$DP?$DP?$DP?$DPxxxxx@FNODOBFM@ 000000018000e980     csgo.obj
 0001:0000d990       ??_C@_0M@EKCNMLPE@?$IL?$AN?$AA?$AA?$AA?$AA?$APW?$MA?GE@FNODOBFM@ 000000018000e990     csgo.obj
 0001:0000d9a0       ??_C@_0BB@OPLIJHEH@xx?$DP?$DP?$DP?$DP?$DPxx?$DP?$DP?$DP?$DP?$DPxx@FNODOBFM@ 000000018000e9a0     csgo.obj
 0001:0000d9c0       ??_C@_0BB@MCHJLAFP@?F?$AF?$AA?$AA?$AA?$AA?$AA?F?$AF?$AA?$AA?$AA?$AA?$AA?$IL?$BG@FNODOBFM@ 000000018000e9c0     csgo.obj
 0001:0000d9e0       ??_C@_09CFKEJFJP@x?$DP?$DP?$DP?$DPxxxx@FNODOBFM@ 000000018000e9e0     csgo.obj
 0001:0000d9f0       ??_C@_09POKECHOI@?$KB?$AA?$AA?$AA?$AA?$ADD$?$AI@FNODOBFM@ 000000018000e9f0     csgo.obj
 0001:0000da00       ??_C@_0P@PBMMBPNN@Gamers?5Club?5AC@FNODOBFM@ 000000018000ea00     csgo.obj
 0001:0000da10       ??_C@_0L@JMPDLOFE@xxxx?$DP?$DP?$DP?$DPxx@FNODOBFM@ 000000018000ea10     csgo.obj
 0001:0000da20       ??_C@_0L@KGDCJMIO@?$AA?$AP?$BB?$AF?$AA?$AA?$AA?$AA?s?$AP@FNODOBFM@ 000000018000ea20     csgo.obj
 0001:0000da30       ??_C@_0P@NJKDGNMH@VEngineClient0@FNODOBFM@ 000000018000ea30     csgo.obj
 0001:0000da40       ??_C@_0M@EDKFCHIB@?$IL5?$AA?$AA?$AA?$AAW?$IF?vt8@FNODOBFM@ 000000018000ea40     csgo.obj
 0001:0000da50       ??_C@_0O@KNDKHNCF@DT_BasePlayer@FNODOBFM@ 000000018000ea50     csgo.obj
 0001:0000da60       ??_C@_0O@NDBNDAKG@DT_BaseEntity@FNODOBFM@ 000000018000ea60     csgo.obj
 0001:0000da70       ??_C@_0M@LGBCIIFJ@DT_CSPlayer@FNODOBFM@ 000000018000ea70     csgo.obj
 0001:0000da80       ??_C@_0BB@POPPCPOC@DT_BaseAnimating@FNODOBFM@ 000000018000ea80     csgo.obj
 0001:0000daa0       ??_C@_0BD@BBEIOPED@m_vecViewOffset?$FL0?$FN@FNODOBFM@ 000000018000eaa0     csgo.obj
 0001:0000dac0       ??_C@_07MOJIPLHI@m_Local@FNODOBFM@ 000000018000eac0     csgo.obj
 0001:0000dad0       ??_C@_06MIFAJFHE@m_iFOV@FNODOBFM@ 000000018000ead0     csgo.obj
 0001:0000dae0       ??_C@_0M@MBFMJJPI@m_nTickBase@FNODOBFM@ 000000018000eae0     csgo.obj
 0001:0000daf0       ??_C@_0BB@LPOKPOFC@m_bSpottedByMask@FNODOBFM@ 000000018000eaf0     csgo.obj
 0001:0000db10       ??_C@_0O@NFCJDAAN@m_bHasDefuser@FNODOBFM@ 000000018000eb10     csgo.obj
 0001:0000db20       ??_C@_0M@MKLEPEA@m_nSequence@FNODOBFM@ 000000018000eb20     csgo.obj
 0001:0000db30       ??_C@_0L@FFDKDEJK@r5apex?4exe@FNODOBFM@ 000000018000eb30     apex.obj
 0001:0000db40       ??_C@_07HLDFCDI@xxxxxxx@FNODOBFM@ 000000018000eb40     apex.obj
 0001:0000db50       ??_C@_07JJDCDDHP@H?$APD?NH?$IJ?$AF@FNODOBFM@ 000000018000eb50     apex.obj
 0001:0000db60       ??_C@_0BB@LNPJCFPL@xxxxxxxxxxxxxxxx@FNODOBFM@ 000000018000eb60     apex.obj
 0001:0000db80       ??_C@_0BB@EPMCCBAB@?s?$AP?$BA?$IO?D?$BO?$AA?$AA?s?$AP?$BA?$IG?$PM?$BM?$AA?$AA@FNODOBFM@ 000000018000eb80     apex.obj
 0001:0000dba0       ??_C@_0N@BPCKLKKJ@xxxxx?$DP?$DP?$DP?$DPxxx@FNODOBFM@ 000000018000eba0     apex.obj
 0001:0000dbb0       ??_C@_0N@DCIFFJGD@tDH?$IL?$JD?$AA?$AA?$AA?$AAH?$IF?R@FNODOBFM@ 000000018000ebb0     apex.obj
 0001:0000dbc0       ??_C@_0BD@GHLPCLPE@xxx?$DP?$DP?$DP?$DPxxxxxxxxxxx@FNODOBFM@ 000000018000ebc0     apex.obj
 0001:0000dbe0       ??_C@_0BD@EHJOAIA@H?$IN5?$AA?$AA?$AA?$AAH?$IL?Y?$ID?x?$PPtc?$AP?$LH?H@FNODOBFM@ 000000018000ebe0     apex.obj
 0001:0000dc00       ??_C@_0N@OMCCKKCG@H?$IJ?$AF?$AA?$AA?$AA?$AAH?$IF?It?$AN@FNODOBFM@ 000000018000ec00     apex.obj
 0001:0000dc10       ??_C@_08MPODPIDC@xxxxxxxx@FNODOBFM@ 000000018000ec10     apex.obj
 0001:0000dc20       ??_C@_08LKEAIHEF@L?$IL?X?k?$AHL?$IL?$BN@FNODOBFM@ 000000018000ec20     apex.obj
 0001:0000dc30       ??_C@_0BG@HJDKBJBE@xxxxxxxxx?$DP?$DP?$DP?$DPxxxxxxxx@FNODOBFM@ 000000018000ec30     apex.obj
 0001:0000dc50       ??_C@_0BG@CPNNOOJI@?$EASH?$ID?l?5H?$IL?$AN?$AA?$AA?$AA?$AAH?$IL?Z?$LK?$PP?$PP?$PP?$PP@FNODOBFM@ 000000018000ec50     apex.obj
 0001:0000dc70       ??_C@_0BE@BPMNCOJO@xxx?$DP?$DP?$DP?$DPxxx?$DP?$DP?$DP?$DPx?$DP?$DP?$DP?$DP@FNODOBFM@ 000000018000ec70     apex.obj
 0001:0000dc90       ??_C@_0BE@PHCFHMLD@I?$IL?$LF?$AA?$AA?$AA?$AAI?$IL?$JN?$AA?$AA?$AA?$AA?h?$AA?$AA?$AA?$AA@FNODOBFM@ 000000018000ec90     apex.obj
 0001:0000dcb0       ??_C@_0M@FKJOOOGP@xxxxxx?$DP?$DP?$DP?$DPx@FNODOBFM@ 000000018000ecb0     apex.obj
 0001:0000dcc0       ??_C@_0M@PBMHGMPO@H?$IL?y?$AP?4?$IJ?$AA?$AA?$AA?$AAz@FNODOBFM@ 000000018000ecc0     apex.obj
 0001:0000dcd0       ??_C@_0L@OJEIPPLD@xx?$DP?$DP?$DP?$DPxxxx@FNODOBFM@ 000000018000ecd0     apex.obj
 0001:0000dce0       ??_C@_0L@JGHGFMPL@?$IJ?$AF?L?L?L?L2?$MA?$IJ?$AN@FNODOBFM@ 000000018000ece0     apex.obj
 0001:0000dcf0       ??_C@_0BC@LMOPJCEK@mouse_sensitivity@FNODOBFM@ 000000018000ecf0     apex.obj
 0001:0000dd10       ??_C@_0BC@LFGPNPAK@gamepad_aim_speed@FNODOBFM@ 000000018000ed10     apex.obj
 0001:0000dd30       ??_C@_09JFAPEEIB@DT_Player@FNODOBFM@ 000000018000ed30     apex.obj
 0001:0000dd40       ??_C@_0N@IHGIGPNN@m_iMaxHealth@FNODOBFM@ 000000018000ed40     apex.obj
 0001:0000dd50       ??_C@_0BD@BKMINDM@m_ammoPoolCapacity@FNODOBFM@ 000000018000ed50     apex.obj
 0001:0000dd70       ??_C@_0L@DKHBJPHJ@m_bZooming@FNODOBFM@ 000000018000ed70     apex.obj
 0001:0000dd80       ??_C@_0BE@KBNMPKLH@m_zoomFullStartTime@FNODOBFM@ 000000018000ed80     apex.obj
 0001:0000dda0       ??_C@_07BHIJODOP@m_iName@FNODOBFM@ 000000018000eda0     apex.obj
 0001:0000ddb0       ??_C@_0BH@EFEKCINC@DT_BaseCombatCharacter@FNODOBFM@ 000000018000edb0     apex.obj
 0001:0000ddd0       ??_C@_0BH@CIGLPLP@m_latestPrimaryWeapons@FNODOBFM@ 000000018000edd0     apex.obj
 0001:0000ddf0       ??_C@_0N@PCMAIJEE@m_nForceBone@FNODOBFM@ 000000018000edf0     apex.obj
 0001:0000de00       ??_C@_0L@IEPPGF@DT_WeaponX@FNODOBFM@ 000000018000ee00     apex.obj
 0001:0000de10       ??_C@_0N@KENGFEHM@m_playerData@FNODOBFM@ 000000018000ee10     apex.obj
 0001:0000de20       ??_C@_1BO@LMGJKJH@?$AAw?$AAi?$AAn?$AA3?$AA2?$AAk?$AAb?$AAa?$AAs?$AAe?$AA?4?$AAs?$AAy?$AAs@FNODOBFM@ 000000018000ee20     gdi.obj
 0001:0000de40       ??_C@_1BO@JPPHINID@?$AAw?$AAi?$AAn?$AA3?$AA2?$AAk?$AAf?$AAu?$AAl?$AAl?$AA?4?$AAs?$AAy?$AAs@FNODOBFM@ 000000018000ee40     gdi.obj
 0001:0000de60       ??_C@_0BK@CKGKDPLE@NtUserGetForegroundWindow@FNODOBFM@ 000000018000ee60     gdi.obj
 0001:0000de80       ??_C@_0M@GNHJGNDG@NtUserGetDC@FNODOBFM@ 000000018000ee80     gdi.obj
 0001:0000de90       ??_C@_0O@CLKIFNDM@NtUserGetDCEx@FNODOBFM@ 000000018000ee90     gdi.obj
 0001:0000dea0       ??_C@_0M@HGGCGGKJ@NtGdiPatBlt@FNODOBFM@ 000000018000eea0     gdi.obj
 0001:0000deb0       ??_C@_0P@PGPBCIOJ@GreSelectBrush@FNODOBFM@ 000000018000eeb0     gdi.obj
 0001:0000dec0       ??_C@_0BA@LILHCIH@NtUserReleaseDC@FNODOBFM@ 000000018000eec0     gdi.obj
 0001:0000ded0       ??_C@_0BG@HEAJCEDJ@NtGdiCreateSolidBrush@FNODOBFM@ 000000018000eed0     gdi.obj
 0001:0000def0       ??_C@_0BF@IGOEOJCE@NtGdiDeleteObjectApp@FNODOBFM@ 000000018000eef0     gdi.obj
 0001:0000df10       ??_C@_0BB@KHIKGFPO@NtGdiExtTextOutW@FNODOBFM@ 000000018000ef10     gdi.obj
 0001:0000df30       ??_C@_0M@CEHBBBKH@hfontCreate@FNODOBFM@ 000000018000ef30     gdi.obj
 0001:0000df40       ??_C@_0BA@KNJCBBOB@NtGdiSelectFont@FNODOBFM@ 000000018000ef40     gdi.obj
 0001:0000df50       ??_C@_0BC@CBFFAFNP@NtUserPeekMessage@FNODOBFM@ 000000018000ef50     kernel.obj
 0001:0000df70       ??_C@_0BB@FOFPHJPM@xxxx?$DPxxxx?$DPxxxxxx@FNODOBFM@ 000000018000ef70     kernel.obj
 0001:0000df90       ??_C@_0BB@MMIFNANM@H?$IJ?2$?$AAH?$IJL$?$AAWH?$ID?l?5A@FNODOBFM@ 000000018000ef90     kernel.obj
 0001:0000dfb0       ??_C@_1CC@BLEFHADO@?$AA?2?$AAD?$AAr?$AAi?$AAv?$AAe?$AAr?$AA?2?$AAM?$AAo?$AAu?$AAC?$AAl?$AAa?$AAs@FNODOBFM@ 000000018000efb0     kernel.obj
 0001:0000dfe0       ??_C@_1BO@OJMKCPO@?$AA?2?$AAD?$AAr?$AAi?$AAv?$AAe?$AAr?$AA?2?$AAM?$AAo?$AAu?$AAH?$AAI?$AAD@FNODOBFM@ 000000018000efe0     kernel.obj
 0001:0000e000       ??_C@_1FM@CLLIFOIO@?$AA?$FL?$AAb?$AAo?$AAo?$AAt?$AAx?$AA6?$AA4?$AA?4?$AAe?$AAf?$AAi?$AA?$FN?$AA?5?$AAP@FNODOBFM@ 000000018000f000     main.obj
 0001:0000e060       ??_C@_06KHMEPODE@?$PP?$CF?$AA?$AA?$AA?$AA@FNODOBFM@ 000000018000f060     main.obj
 0001:0000e070       ??_C@_1FE@MIKFPAFJ@?$AA?$FL?$AAb?$AAo?$AAo?$AAt?$AAx?$AA6?$AA4?$AA?4?$AAe?$AAf?$AAi?$AA?$FN?$AA?5?$AAF@FNODOBFM@ 000000018000f070     main.obj
 0001:0000e0d0       ??_C@_1GA@DNGAOBGJ@?$AA?$FL?$AAb?$AAo?$AAo?$AAt?$AAx?$AA6?$AA4?$AA?4?$AAe?$AAf?$AAi?$AA?$FN?$AA?5?$AAC@FNODOBFM@ 000000018000f0d0     main.obj
 0001:0000e130       ??_C@_1EA@EACGGCAH@?$AA?$FL?$AAb?$AAo?$AAo?$AAt?$AAx?$AA6?$AA4?$AA?4?$AAe?$AAf?$AAi?$AA?$FN?$AA?5?$AAE@FNODOBFM@ 000000018000f130     main.obj
 0001:0000e170       ??_C@_1GA@COPKNDMG@?$AA?$FL?$AAb?$AAo?$AAo?$AAt?$AAx?$AA6?$AA4?$AA?4?$AAe?$AAf?$AAi?$AA?$FN?$AA?5?$AAS@FNODOBFM@ 000000018000f170     main.obj
 0001:0000e1d0       ??_C@_1FC@KBCKKLDC@?$AA?$FL?$AAb?$AAo?$AAo?$AAt?$AAx?$AA6?$AA4?$AA?4?$AAe?$AAf?$AAi?$AA?$FN?$AA?5?$AAF@FNODOBFM@ 000000018000f1d0     main.obj
 0001:0000e230       ??_C@_0M@PGEMAAMD@NtImageInfo@FNODOBFM@ 000000018000f230     main.obj
 0001:0000e240       ??_C@_0BN@DJGIBLGA@RtlFindExportedRoutineByName@FNODOBFM@ 000000018000f240     main.obj
 0001:0000e260       ??_C@_0BD@INIIMDPB@RtlImageNtHeaderEx@FNODOBFM@ 000000018000f260     main.obj
 0001:0000e280       ??_C@_09CPPOEBIG@xxxxxxxxx@FNODOBFM@ 000000018000f280     main.obj
 0001:0000e290       ??_C@_09ELPECHKN@E3?RM?$IL?XM?$IF?I@FNODOBFM@ 000000018000f290     main.obj
 0001:0000e2a0       ??_C@_0BM@DIAGKIEI@EfiGetMemoryAttributesTable@FNODOBFM@ 000000018000f2a0     main.obj
 0001:0000e2c0       ??_C@_0BJ@CDBLINBP@BlMmMapPhysicalAddressEx@FNODOBFM@ 000000018000f2c0     main.obj
 0001:0000e2e0       ??_C@_0BK@OCMNNDIB@BlMmUnmapVirtualAddressEx@FNODOBFM@ 000000018000f2e0     main.obj
 0002:00000000       __imp_ExAllocatePoolWithTag 0000000180010000     ntoskrnl:ntoskrnl.exe
 0002:00000008       __imp_ExFreePoolWithTag    0000000180010008     ntoskrnl:ntoskrnl.exe
 0002:00000010       __imp_MmGetPhysicalAddress 0000000180010010     ntoskrnl:ntoskrnl.exe
 0002:00000018       __imp_MmIsAddressValid     0000000180010018     ntoskrnl:ntoskrnl.exe
 0002:00000020       __imp_PsGetProcessId       0000000180010020     ntoskrnl:ntoskrnl.exe
 0002:00000028       __imp_PsGetProcessImageFileName 0000000180010028     ntoskrnl:ntoskrnl.exe
 0002:00000030       __imp_PsGetProcessExitProcessCalled 0000000180010030     ntoskrnl:ntoskrnl.exe
 0002:00000038       __imp_PsGetProcessPeb      0000000180010038     ntoskrnl:ntoskrnl.exe
 0002:00000040       __imp_PsGetProcessWow64Process 0000000180010040     ntoskrnl:ntoskrnl.exe
 0002:00000048       __imp_PsInitialSystemProcess 0000000180010048     ntoskrnl:ntoskrnl.exe
 0002:00000050       PsLoadedModuleList         0000000180010050     ntoskrnl:ntoskrnl.exe
 0002:00000050       __imp_PsLoadedModuleList   0000000180010050     ntoskrnl:ntoskrnl.exe
 0002:00000058       __imp_RtlInitUnicodeString 0000000180010058     ntoskrnl:ntoskrnl.exe
 0002:00000060       __imp_KeLowerIrql          0000000180010060     ntoskrnl:ntoskrnl.exe
 0002:00000068       __imp_KfRaiseIrql          0000000180010068     ntoskrnl:ntoskrnl.exe
 0002:00000070       __imp_KeAcquireSpinLockAtDpcLevel 0000000180010070     ntoskrnl:ntoskrnl.exe
 0002:00000078       __imp_KeReleaseSpinLockFromDpcLevel 0000000180010078     ntoskrnl:ntoskrnl.exe
 0002:00000080       __imp_IofCompleteRequest   0000000180010080     ntoskrnl:ntoskrnl.exe
 0002:00000088       __imp_IoReleaseRemoveLockEx 0000000180010088     ntoskrnl:ntoskrnl.exe
 0002:00000090       __imp_ObfDereferenceObject 0000000180010090     ntoskrnl:ntoskrnl.exe
 0002:00000098       __imp_PsGetThreadWin32Thread 0000000180010098     ntoskrnl:ntoskrnl.exe
 0002:000000a0       __imp_ObReferenceObjectByName 00000001800100a0     ntoskrnl:ntoskrnl.exe
 0002:000000a8       IoDriverObjectType         00000001800100a8     ntoskrnl:ntoskrnl.exe
 0002:000000a8       __imp_IoDriverObjectType   00000001800100a8     ntoskrnl:ntoskrnl.exe
 0002:000000b0       \177ntoskrnl_NULL_THUNK_DATA 00000001800100b0     ntoskrnl:ntoskrnl.exe
 0002:000000c0       __real@00000000            00000001800100c0     cs2features.obj
 0002:000000c8       __real@0000000000000000    00000001800100c8     cs2features.obj
 0002:000000d0       __real@34000000            00000001800100d0     cs2features.obj
 0002:000000d4       __real@3c23d70a            00000001800100d4     cs2features.obj
 0002:000000d8       __real@3c5cdce5            00000001800100d8     cs2features.obj
 0002:000000dc       __real@3c8efa35            00000001800100dc     cs2features.obj
 0002:000000e0       __real@3cb43958            00000001800100e0     cs2features.obj
 0002:000000e4       __real@3d6b65aa            00000001800100e4     cs2features.obj
 0002:000000e8       __real@3df8476f            00000001800100e8     cs2features.obj
 0002:000000ec       __real@3e48533b            00000001800100ec     cs2features.obj
 0002:000000f0       __real@3e800000            00000001800100f0     cs2features.obj
 0002:000000f4       __real@3eaa7daa            00000001800100f4     cs2features.obj
 0002:000000f8       __real@3ecccccd            00000001800100f8     cs2features.obj
 0002:000000fc       __real@3f000000            00000001800100fc     cs2features.obj
 0002:00000100       __real@3f7fff58            0000000180010100     cs2features.obj
 0002:00000104       __real@3f800000            0000000180010104     cs2features.obj
 0002:00000108       __real@3fc90fa6            0000000180010108     cs2features.obj
 0002:00000110       __real@3ff0000000000000    0000000180010110     cs2features.obj
 0002:00000118       __real@40000000            0000000180010118     cs2features.obj
 0002:00000120       __real@4000000000000000    0000000180010120     cs2features.obj
 0002:00000128       __real@40200000            0000000180010128     cs2features.obj
 0002:0000012c       __real@40490fd0            000000018001012c     cs2features.obj
 0002:00000130       __real@40490fdb            0000000180010130     cs2features.obj
 0002:00000134       __real@40accccd            0000000180010134     cs2features.obj
 0002:00000138       __real@40d9999a            0000000180010138     cs2features.obj
 0002:0000013c       __real@42960000            000000018001013c     cs2features.obj
 0002:00000140       __real@42b20000            0000000180010140     cs2features.obj
 0002:00000144       __real@42b40000            0000000180010144     cs2features.obj
 0002:00000148       __real@42c80000            0000000180010148     cs2features.obj
 0002:0000014c       __real@43100000            000000018001014c     cs2features.obj
 0002:00000150       __real@43340000            0000000180010150     cs2features.obj
 0002:00000154       __real@437f0000            0000000180010154     cs2features.obj
 0002:00000158       __real@43870000            0000000180010158     cs2features.obj
 0002:0000015c       __real@43b40000            000000018001015c     cs2features.obj
 0002:00000160       __real@bcb43958            0000000180010160     cs2features.obj
 0002:00000164       __real@bda3d70a            0000000180010164     cs2features.obj
 0002:00000168       __real@bf800000            0000000180010168     cs2features.obj
 0002:00000170       __real@bff0000000000000    0000000180010170     cs2features.obj
 0002:00000178       __real@c2b20000            0000000180010178     cs2features.obj
 0002:0000017c       __real@c2c80000            000000018001017c     cs2features.obj
 0002:00000180       __xmm@7fffffff7fffffff7fffffff7fffffff 0000000180010180     cs2features.obj
 0002:00000190       __xmm@80000000000000008000000000000000 0000000180010190     cs2features.obj
 0002:000001a0       __xmm@80000000800000008000000080000000 00000001800101a0     cs2features.obj
 0002:000001b0       __real@40a00000            00000001800101b0     csgofeatures.obj
 0002:000001b4       __real@40e00000            00000001800101b4     csgofeatures.obj
 0002:000001b8       __real@41c80000            00000001800101b8     csgofeatures.obj
 0002:000001bc       __real@433f0000            00000001800101bc     csgofeatures.obj
 0002:000001c0       __real@c0a00000            00000001800101c0     csgofeatures.obj
 0002:000001c4       __real@c0e00000            00000001800101c4     csgofeatures.obj
 0002:000001d0       __xmm@000000003dcccccd4066666600000000 00000001800101d0     csgofeatures.obj
 0002:000001e0       __xmm@0000000b0000000a0000000900000008 00000001800101e0     csgofeatures.obj
 0002:000001f0       __xmm@0000000f0000000e0000000d0000000c 00000001800101f0     csgofeatures.obj
 0002:00000200       __xmm@3dcccccd3f4ccccd404000003dcccccd 0000000180010200     csgofeatures.obj
 0002:00000210       __xmm@00000438000007800000000000000000 0000000180010210     apex.obj
 0002:00000220       __real@42652eed            0000000180010220     apexfeatures.obj
 0002:00000224       __real@443b8000            0000000180010224     apexfeatures.obj
 0003:00000018       ?gEfiLoadedImageProtocolGuid@@3UGUID@@A 0000000180011018     main.obj
 0003:00000028       ?gEfiMemoryAttributesTableGuid@@3UGUID@@A 0000000180011028     main.obj
 0003:00000040       __isa_info                 0000000180011040     ntoskrnl:cpuinfo.obj
 0003:00000080       ?game_handle@cs2@@3PEAXEA  0000000180011080     cs2.obj
 0003:00000150       ?weapon_class@features@cs2@@3W4WEAPON_CLASS@2@A 0000000180011150     cs2features.obj
 0003:00000154       ?b_aimbot_button@features@cs2@@3HA 0000000180011154     cs2features.obj
 0003:00000158       ?b_triggerbot_button@features@cs2@@3HA 0000000180011158     cs2features.obj
 0003:0000015c       ?b_mtrig_button@features@cs2@@3HA 000000018001115c     cs2features.obj
 0003:000001a8       ?game_handle@csgo@@3PEAXEA 00000001800111a8     csgo.obj
 0003:000001b0       ?use_dormant_check@csgo@@3HA 00000001800111b0     csgo.obj
 0003:000002b0       ?game_handle@apex@@3PEAXEA 00000001800112b0     apex.obj
 0003:000003d0       ?NtUserGetForegroundWindow@gdi@@3P6APEAUHWND__@@XZEA 00000001800113d0     gdi.obj
 0003:000003d8       ?NtUserGetDC@gdi@@3P6APEAUHDC__@@PEAUHWND__@@@ZEA 00000001800113d8     gdi.obj
 0003:000003e0       ?NtUserGetDCEx@gdi@@3P6APEAUHDC__@@PEAUHWND__@@PEAXK@ZEA 00000001800113e0     gdi.obj
 0003:000003e8       ?NtGdiSelectBrush@gdi@@3P6APEAUHBRUSH__@@PEAUHDC__@@PEAU2@@ZEA 00000001800113e8     gdi.obj
 0003:000003f0       ?NtGdiPatBlt@gdi@@3P6AHPEAUHDC__@@HHHHK@ZEA 00000001800113f0     gdi.obj
 0003:000003f8       ?NtUserReleaseDC@gdi@@3P6AHPEAUHDC__@@@ZEA 00000001800113f8     gdi.obj
 0003:00000400       ?NtGdiCreateSolidBrush@gdi@@3P6APEAUHBRUSH__@@KPEAU2@@ZEA 0000000180011400     gdi.obj
 0003:00000408       ?NtGdiDeleteObjectApp@gdi@@3P6AHPEAX@ZEA 0000000180011408     gdi.obj
 0003:00000410       ?NtGdiExtTextOutW@gdi@@3P6AHPEAUHDC__@@HHIPEAUtagRECT@@PEAGHPEAHK@ZEA 0000000180011410     gdi.obj
 0003:00000418       ?NtGdiHfontCreate@gdi@@3P6APEAUHFONT__@@PEAUtagENUMLOGFONTEXDVW@@KKKPEAX@ZEA 0000000180011418     gdi.obj
 0003:00000420       ?NtGdiSelectFont@gdi@@3P6APEAUHFONT__@@PEAUHDC__@@PEAU2@@ZEA 0000000180011420     gdi.obj
 0003:00000428       ?init_status@gdi@@3HA      0000000180011428     gdi.obj
 0003:00000430       _fltused                   0000000180011430     kernel.obj
 0003:00000434       ?PsGetThreadWin32ThreadOffset@km@@3KA 0000000180011434     kernel.obj
 0003:00000438       NtUserPeekMessage          0000000180011438     kernel.obj
 0003:00000440       _KeAcquireSpinLockAtDpcLevel 0000000180011440     kernel.obj
 0003:00000448       _KeReleaseSpinLockFromDpcLevel 0000000180011448     kernel.obj
 0003:00000450       _IofCompleteRequest        0000000180011450     kernel.obj
 0003:00000458       _IoReleaseRemoveLockEx     0000000180011458     kernel.obj
 0003:00000460       ?memcpy_safe@km@@3P6AJPEAX0K@ZEA 0000000180011460     kernel.obj
 0003:00000468       ?gMouseObject@@3U_MOUSE_OBJECT@@A 0000000180011468     kernel.obj
 0003:00000488       ?gST@@3PEAUEFI_SYSTEM_TABLE@@EA 0000000180011488     main.obj
 0003:00000490       ?gBS@@3PEAUEFI_BOOT_SERVICES@@EA 0000000180011490     main.obj
 0003:00000498       ?gRT@@3PEAUEFI_RUNTIME_SERVICES@@EA 0000000180011498     main.obj
 0003:000004a0       EfiBaseAddress             00000001800114a0     main.obj
 0003:000004a8       EfiBaseSize                00000001800114a8     main.obj
 0003:000004b0       GlobalStatusVariable       00000001800114b0     main.obj
 0003:000004b8       winload_base               00000001800114b8     main.obj
 0003:000004c0       ntoskrnl_base              00000001800114c0     main.obj
 0003:000004c8       mTable                     00000001800114c8     main.obj
 0003:000004d0       BlMmMapPhysicalAddressEx   00000001800114d0     main.obj
 0003:000004d8       BlMmUnmapVirtualAddressEx  00000001800114d8     main.obj
 0003:000004e0       oAllocatePages             00000001800114e0     main.obj
 0003:000004e8       oExitBootServices          00000001800114e8     main.obj
 0003:000004f0       ?BlMmMapPhysicalAddressExOriginal@@3PAEA 00000001800114f0     main.obj
 0005:00000000       __IMPORT_DESCRIPTOR_ntoskrnl 0000000180013000     ntoskrnl:ntoskrnl.exe
 0005:00000014       __NULL_IMPORT_DESCRIPTOR   0000000180013014     ntoskrnl:ntoskrnl.exe

 entry point at        0001:0000c720

 Static symbols

 0001:00000000       $$000000                   0000000180001000     mouse.obj
 0001:00000b10       ?get_interface@cs2@@YA_K_KPEBD@Z 0000000180001b10 f   cs2.obj
 0001:00001438       ?initialize@cs2@@YAHXZ     0000000180002438 f   cs2.obj
 0001:00002ee4       ?esp@features@cs2@@YAX_K0Uvec3@@@Z 0000000180003ee4 f   cs2features.obj
 0001:000031a4       ?get_best_target@features@cs2@@YAXH_K0KUvec2@@PEA_K@Z 00000001800041a4 f   cs2features.obj
 0001:00003520       ?get_target_angle@features@cs2@@YA?AUvec3@@_KU3@KUvec2@@@Z 0000000180004520 f   cs2features.obj
 0001:000036c8       ?has_target_event@features@cs2@@YAX_K0MUvec2@@Uvec3@@12@Z 00000001800046c8 f   cs2features.obj
 0001:00004ccc       ?dump_baseanimating_callback@csgo@@YAHPEBDKPEAX@Z 0000000180005ccc f   csgo.obj
 0001:00004d48       ?dump_baseentity_callback@csgo@@YAHPEBDKPEAX@Z 0000000180005d48 f   csgo.obj
 0001:00004e68       ?dump_baseplayer_callback@csgo@@YAHPEBDKPEAX@Z 0000000180005e68 f   csgo.obj
 0001:00005080       ?dump_csplayer_callback@csgo@@YAHPEBDKPEAX@Z 0000000180006080 f   csgo.obj
 0001:000051fc       ?dump_netvar_table_callback@csgo@@YAHPEBDKPEAX@Z 00000001800061fc f   csgo.obj
 0001:000053d4       ?dump_netvar_tables@csgo@@YAHP6AHPEBDKPEAX@Z1@Z 00000001800063d4 f   csgo.obj
 0001:000054d8       ?dump_netvars@csgo@@YAKKP6AHPEBDKPEAX@Z1@Z 00000001800064d8 f   csgo.obj
 0001:00005794       ?get_convar@csgo@@YAKPEBD@Z 0000000180006794 f   csgo.obj
 0001:0000592c       ?get_convar_int@csgo@@YAHK@Z 000000018000692c f   csgo.obj
 0001:00005b8c       ?get_interface@csgo@@YAKKPEBD@Z 0000000180006b8c f   csgo.obj
 0001:00005cdc       ?get_interface_factory@csgo@@YAKK@Z 0000000180006cdc f   csgo.obj
 0001:00005d54       ?get_interface_function@csgo@@YAKKK@Z 0000000180006d54 f   csgo.obj
 0001:0000623c       ?get_weapon_class_0@player@csgo@@YA?AW4WEAPON_CLASS@2@K@Z 000000018000723c f   csgo.obj
 0001:0000661c       ?get_weapon_class_1@player@csgo@@YA?AW4WEAPON_CLASS@2@K@Z 000000018000761c f   csgo.obj
 0001:00006860       ?initialize@csgo@@YAHXZ    0000000180007860 f   csgo.obj
 0001:00007238       ?aimbot@features@csgo@@YAXKKW4WEAPON_CLASS@2@KH@Z 0000000180008238 f   csgofeatures.obj
 0001:00007704       ?esp@features@csgo@@YAXKK@Z 0000000180008704 f   csgofeatures.obj
 0001:00007964       ?get_best_target@features@csgo@@YAKKKPEAK@Z 0000000180008964 f   csgofeatures.obj
 0001:00007bf8       ?get_incross_target@features@csgo@@YAKK@Z 0000000180008bf8 f   csgofeatures.obj
 0001:00007c64       ?get_target_angle@features@csgo@@YA?AUvec3@@KU3@K@Z 0000000180008c64 f   csgofeatures.obj
 0001:00007de8       ?random_number@@YA_K_K0@Z  0000000180008de8 f   csgofeatures.obj
 0001:00008134       ?standalone_rcs@features@csgo@@YAXK@Z 0000000180009134 f   csgofeatures.obj
 0001:00008258       ?triggerbot@features@csgo@@YAHKKKW4WEAPON_CLASS@2@@Z 0000000180009258 f   csgofeatures.obj
 0001:000088d4       ?dump_netvars@apex@@YAH_K@Z 00000001800098d4 f   apex.obj
 0001:00009228       ?get_netvar@apex@@YAH_KPEBD@Z 000000018000a228 f   apex.obj
 0001:0000975c       ?initialize@apex@@YAHXZ    000000018000a75c f   apex.obj
 0001:00009ed8       ?esp@features@apex@@YAX_K0Uvec3@@@Z 000000018000aed8 f   apexfeatures.obj
 0001:0000a190       ?get_best_target@features@apex@@YAX_KPEA_K@Z 000000018000b190 f   apexfeatures.obj
 0001:0000a348       ?get_target_angle@features@apex@@YA?AUvec3@@_K0U3@@Z 000000018000b348 f   apexfeatures.obj
 0001:0000be10       ?move@mouse@@YAXJJG@Z      000000018000ce10 f   kernel.obj
 0001:0000be7c       ?open@mouse@@YAHXZ         000000018000ce7c f   kernel.obj
 0001:0000c060       ?BlMmMapPhysicalAddressExHook@@YA_JPEA_J_J_KID@Z 000000018000d060 f   main.obj
 0001:0000c1a4       ?GetMemoryAttributesTable@@YAPEAKPEA_K@Z 000000018000d1a4 f   main.obj
 0001:0000cec0       $$000000                   000000018000dec0     ntoskrnl:memcpy.obj
 0001:0000cee0       mcpy00                     000000018000dee0     ntoskrnl:memcpy.obj
 0001:0000cf00       mcpy10                     000000018000df00     ntoskrnl:memcpy.obj
 0001:0000cf1a       mcpy20                     000000018000df1a     ntoskrnl:memcpy.obj
 0001:0000cf20       mcpy30                     000000018000df20     ntoskrnl:memcpy.obj
 0001:0000cf40       xcpy00                     000000018000df40     ntoskrnl:memcpy.obj
 0001:0000cf71       xcpy10                     000000018000df71     ntoskrnl:memcpy.obj
 0001:0000cfc0       xcpy13                     000000018000dfc0     ntoskrnl:memcpy.obj
 0001:0000cfef       xcpy15                     000000018000dfef     ntoskrnl:memcpy.obj
 0001:0000d011       xcpy20                     000000018000e011     ntoskrnl:memcpy.obj
 0001:0000d025       xcpy30                     000000018000e025     ntoskrnl:memcpy.obj
 0001:0000d040       lcpy00                     000000018000e040     ntoskrnl:memcpy.obj
 0001:0000d080       lcpy10                     000000018000e080     ntoskrnl:memcpy.obj
 0001:0000d0c0       xmov00                     000000018000e0c0     ntoskrnl:memcpy.obj
 0001:0000d0ed       xmov10                     000000018000e0ed     ntoskrnl:memcpy.obj
 0001:0000d100       xmov13                     000000018000e100     ntoskrnl:memcpy.obj
 0001:0000d12f       xmov15                     000000018000e12f     ntoskrnl:memcpy.obj
 0001:0000d151       xmov20                     000000018000e151     ntoskrnl:memcpy.obj
 0001:0000d166       xmov30                     000000018000e166     ntoskrnl:memcpy.obj
 0001:0000d180       $$000000                   000000018000e180     ntoskrnl:memset.obj
 0001:0000d1a2       mset10                     000000018000e1a2     ntoskrnl:memset.obj
 0001:0000d1b8       mset20                     000000018000e1b8     ntoskrnl:memset.obj
 0001:0000d1e1       mset30                     000000018000e1e1     ntoskrnl:memset.obj
 0001:0000d210       mset45                     000000018000e210     ntoskrnl:memset.obj
 0001:0000d216       mset46                     000000018000e216     ntoskrnl:memset.obj
 0001:0000d240       mset47                     000000018000e240     ntoskrnl:memset.obj
 0001:0000d270       mset48                     000000018000e270     ntoskrnl:memset.obj
 0001:0000d286       mset50                     000000018000e286     ntoskrnl:memset.obj
 0001:0000d2c0       $$000000                   000000018000e2c0     ntoskrnl:memset.obj
 0001:0000d2ca       repmovs10                  000000018000e2ca     ntoskrnl:memset.obj
 0001:0000d2fc       repmovs20                  000000018000e2fc     ntoskrnl:memset.obj
 0001:0000d340       $$000000                   000000018000e340     ntoskrnl:memset.obj
 0002:00000228       $unwind$?get_client_entity@entity@apex@@YA_KH@Z 0000000180010228     apex.obj
 0002:00000228       $unwind$?get_controller_sensitivity@apex@@YAHXZ 0000000180010228     apex.obj
 0002:00000228       $unwind$?get_current_tick@engine@apex@@YAHXZ 0000000180010228     apex.obj
 0002:00000228       $unwind$?get_health@player@apex@@YAH_K@Z 0000000180010228     apex.obj
 0002:00000228       $unwind$?get_hwnd@engine@apex@@YA_KXZ 0000000180010228     apex.obj
 0002:00000228       $unwind$?get_int@cvar@apex@@YAH_K@Z 0000000180010228     apex.obj
 0002:00000228       $unwind$?get_local_player@entity@apex@@YA_KXZ 0000000180010228     apex.obj
 0002:00000228       $unwind$?get_max_health@player@apex@@YAH_K@Z 0000000180010228     apex.obj
 0002:00000228       $unwind$?get_team_num@player@apex@@YAH_K@Z 0000000180010228     apex.obj
 0002:00000228       $unwind$?get_viewangles@player@apex@@YA?AUvec2@@_K@Z 0000000180010228     apex.obj
 0002:00000228       $unwind$?is_zoomed_in@player@apex@@YAH_K@Z 0000000180010228     apex.obj
 0002:00000228       $unwind$?update_settings@features@apex@@YAXXZ 0000000180010228     apexfeatures.obj
 0002:00000228       $unwind$?get_crosshairalpha@cs2@@YAHXZ 0000000180010228     cs2.obj
 0002:00000228       $unwind$?get_current_ms@engine@cs2@@YAKXZ 0000000180010228     cs2.obj
 0002:00000228       $unwind$?get_dormant@node@cs2@@YAE_K@Z 0000000180010228     cs2.obj
 0002:00000228       $unwind$?get_eye_angles@player@cs2@@YA?AUvec2@@_K@Z 0000000180010228     cs2.obj
 0002:00000228       $unwind$?get_health@player@cs2@@YAK_K@Z 0000000180010228     cs2.obj
 0002:00000228       $unwind$?get_hwnd@sdl@cs2@@YA_K_K@Z 0000000180010228     cs2.obj
 0002:00000228       $unwind$?get_life_state@player@cs2@@YAH_K@Z 0000000180010228     cs2.obj
 0002:00000228       $unwind$?get_local_player_controller@entity@cs2@@YA_KXZ 0000000180010228     cs2.obj
 0002:00000228       $unwind$?get_node@player@cs2@@YA_K_K@Z 0000000180010228     cs2.obj
 0002:00000228       $unwind$?get_shots_fired@player@cs2@@YAK_K@Z 0000000180010228     cs2.obj
 0002:00000228       $unwind$?get_team_num@player@cs2@@YAK_K@Z 0000000180010228     cs2.obj
 0002:00000228       $unwind$?get_viewangle@player@cs2@@YA?AUvec2@@_K@Z 0000000180010228     cs2.obj
 0002:00000228       $unwind$?get_window@sdl@cs2@@YA_KXZ 0000000180010228     cs2.obj
 0002:00000228       $unwind$?get_window_data@sdl@cs2@@YA_K_K@Z 0000000180010228     cs2.obj
 0002:00000228       $unwind$?update_settings@features@cs2@@YAXXZ 0000000180010228     cs2features.obj
 0002:00000228       $unwind$?get_client_entity@entity@csgo@@YAKH@Z 0000000180010228     csgo.obj
 0002:00000228       $unwind$?get_crosshair_id@player@csgo@@YAHK@Z 0000000180010228     csgo.obj
 0002:00000228       $unwind$?get_current_tick@engine@csgo@@YAKXZ 0000000180010228     csgo.obj
 0002:00000228       $unwind$?get_dormant@player@csgo@@YAHK@Z 0000000180010228     csgo.obj
 0002:00000228       $unwind$?get_fov@player@csgo@@YAHK@Z 0000000180010228     csgo.obj
 0002:00000228       $unwind$?get_health@player@csgo@@YAHK@Z 0000000180010228     csgo.obj
 0002:00000228       $unwind$?get_hwnd@input@csgo@@YAKXZ 0000000180010228     csgo.obj
 0002:00000228       $unwind$?get_interface_factory@csgo@@YAKK@Z 0000000180010228     csgo.obj
 0002:00000228       $unwind$?get_life_state@player@csgo@@YAHK@Z 0000000180010228     csgo.obj
 0002:00000228       $unwind$?get_local_player@teams@csgo@@YAKXZ 0000000180010228     csgo.obj
 0002:00000228       $unwind$?get_player_count@teams@csgo@@YAHK@Z 0000000180010228     csgo.obj
 0002:00000228       $unwind$?get_player_id@player@csgo@@YAHK@Z 0000000180010228     csgo.obj
 0002:00000228       $unwind$?get_player_list@teams@csgo@@YAKK@Z 0000000180010228     csgo.obj
 0002:00000228       $unwind$?get_screen_pos@engine@csgo@@YA?AUvec2_i@@XZ 0000000180010228     csgo.obj
 0002:00000228       $unwind$?get_screen_size@engine@csgo@@YA?AUvec2_i@@XZ 0000000180010228     csgo.obj
 0002:00000228       $unwind$?get_shots_fired@player@csgo@@YAHK@Z 0000000180010228     csgo.obj
 0002:00000228       $unwind$?get_team@teams@csgo@@YAKKH@Z 0000000180010228     csgo.obj
 0002:00000228       $unwind$?get_team_count@teams@csgo@@YAHXZ 0000000180010228     csgo.obj
 0002:00000228       $unwind$?get_team_list@teams@csgo@@YAKXZ 0000000180010228     csgo.obj
 0002:00000228       $unwind$?get_team_num@player@csgo@@YAHK@Z 0000000180010228     csgo.obj
 0002:00000228       $unwind$?get_team_num@teams@csgo@@YAHK@Z 0000000180010228     csgo.obj
 0002:00000228       $unwind$?get_vec_punch@player@csgo@@YA?AUvec2@@K@Z 0000000180010228     csgo.obj
 0002:00000228       $unwind$?get_viewangles@player@csgo@@YA?AUvec2@@K@Z 0000000180010228     csgo.obj
 0002:00000228       $unwind$?has_defuser@player@csgo@@YAHK@Z 0000000180010228     csgo.obj
 0002:00000228       $unwind$?is_defusing@player@csgo@@YAHK@Z 0000000180010228     csgo.obj
 0002:00000228       $unwind$?update_settings@features@csgo@@YAXXZ 0000000180010228     csgofeatures.obj
 0002:00000228       $unwind$?initialize@km@@YAE_K@Z 0000000180010228     kernel.obj
 0002:00000228       $unwind$?read_i32w@vmwin@@YA_KPEAX_K@Z 0000000180010228     vm.obj
 0002:00000228       $unwind$?read_i64@vm@@YA_KPEAX_K@Z 0000000180010228     vm.obj
 0002:00000234       $unwind$?get_camera_origin@player@apex@@YA?AUvec3@@_K@Z 0000000180010234     apex.obj
 0002:00000234       $unwind$?get_origin@player@apex@@YA?AUvec3@@_K@Z 0000000180010234     apex.obj
 0002:00000234       $unwind$?get_velocity@player@apex@@YA?AUvec3@@_K@Z 0000000180010234     apex.obj
 0002:00000234       $unwind$?get_origin@node@cs2@@YA?AUvec3@@_K@Z 0000000180010234     cs2.obj
 0002:00000234       $unwind$?get_origin@player@cs2@@YA?AUvec3@@_K@Z 0000000180010234     cs2.obj
 0002:00000234       $unwind$?get_window_info@sdl@cs2@@YAH_KPEAUWINDOW_INFO@2@@Z 0000000180010234     cs2.obj
 0002:00000240       $unwind$?get_convar@engine@cs2@@YA_KPEBD@Z 0000000180010240     cs2.obj
 0002:00000260       $unwind$?is_button_down@input@apex@@YAHK@Z 0000000180010260     apex.obj
 0002:00000260       $unwind$?is_valid@player@apex@@YAH_K@Z 0000000180010260     apex.obj
 0002:00000260       $unwind$?get_client_entity@entity@cs2@@YA_KH@Z 0000000180010260     cs2.obj
 0002:00000260       $unwind$?get_interface_function@cs2@@YA_K_KK@Z 0000000180010260     cs2.obj
 0002:00000260       $unwind$?get_player@entity@cs2@@YA_K_K@Z 0000000180010260     cs2.obj
 0002:00000260       $unwind$?get_viewmatrix@engine@cs2@@YA?AUview_matrix_t@@XZ 0000000180010260     cs2.obj
 0002:00000260       $unwind$?is_button_down@input@cs2@@YAHK@Z 0000000180010260     cs2.obj
 0002:00000260       $unwind$?is_ffa@gamemode@cs2@@YAHXZ 0000000180010260     cs2.obj
 0002:00000260       $unwind$?get_button_state@input@csgo@@YAHK@Z 0000000180010260     csgo.obj
 0002:00000260       $unwind$?get_convar_int@csgo@@YAHK@Z 0000000180010260     csgo.obj
 0002:00000260       $unwind$?get_interface_function@csgo@@YAKKK@Z 0000000180010260     csgo.obj
 0002:00000260       $unwind$?get_origin@player@csgo@@YA?AUvec3@@K@Z 0000000180010260     csgo.obj
 0002:00000260       $unwind$?get_sensitivity@engine@csgo@@YAMXZ 0000000180010260     csgo.obj
 0002:00000260       $unwind$?get_viewmatrix@engine@csgo@@YA?AUview_matrix_t@@XZ 0000000180010260     csgo.obj
 0002:00000260       $unwind$?get_weapon_class@player@csgo@@YA?AW4WEAPON_CLASS@2@K@Z 0000000180010260     csgo.obj
 0002:00000260       $unwind$?running@vm@@YAHPEAX@Z 0000000180010260     vm.obj
 0002:0000026c       $unwind$?get_sensitivity@mouse@cs2@@YAMXZ 000000018001026c     cs2.obj
 0002:0000027c       $unwind$?get_vec_view@player@cs2@@YAM_K@Z 000000018001027c     cs2.obj
 0002:0000028c       $unwind$?get_eye_position@player@cs2@@YA?AUvec3@@_K@Z 000000018001028c     cs2.obj
 0002:0000029c       $unwind$?get_bullet_speed@weapon@apex@@YAM_K@Z 000000018001029c     apex.obj
 0002:0000029c       $unwind$?get_fov_multipler@player@cs2@@YAM_K@Z 000000018001029c     cs2.obj
 0002:000002ac       $unwind$?get_vec_punch@player@cs2@@YA?AUvec2@@_K@Z 00000001800102ac     cs2.obj
 0002:000002b8       $unwind$?get_viewmatrix@engine@apex@@YA?AUview_matrix_t@@XZ 00000001800102b8     apex.obj
 0002:000002b8       $unwind$?get_weapon_class@player@cs2@@YA?AW4WEAPON_CLASS@2@_K@Z 00000001800102b8     cs2.obj
 0002:000002cc       $unwind$?is_valid@player@cs2@@YAH_K0@Z 00000001800102cc     cs2.obj
 0002:000002cc       $unwind$?read@vm@@YAHPEAX_K01@Z 00000001800102cc     vm.obj
 0002:000002cc       $unwind$?scan_pattern_direct@vmwin@@YA_KPEAX_KPEBD2K@Z 00000001800102cc     vm.obj
 0002:000002cc       $unwind$?write@vm@@YAHPEAX_K01@Z 00000001800102cc     vm.obj
 0002:000002e0       $unwind$?get_bone_position@node@cs2@@YAH_KHPEAUvec3@@@Z 00000001800102e0     cs2.obj
 0002:000002e0       $unwind$?get_bone_position@player@csgo@@YAHKHPEAY123M@Z 00000001800102e0     csgo.obj
 0002:000002f0       $unwind$?initialize@cs2@@YAHXZ 00000001800102f0     cs2.obj
 0002:00000308       $unwind$?get_interface@cs2@@YA_K_KPEBD@Z 0000000180010308     cs2.obj
 0002:00000328       $unwind$?qatan2@math@@YAMMM@Z 0000000180010328     cs2features.obj
 0002:0000033c       $unwind$?qsin@math@@YANN@Z 000000018001033c     cs2features.obj
 0002:00000350       $unwind$?qcos@math@@YANN@Z 0000000180010350     cs2features.obj
 0002:00000364       $unwind$?vec_angles@math@@YAXUvec3@@PEAU2@@Z 0000000180010364     cs2features.obj
 0002:00000384       $unwind$?vec_delta@math@@YA?AUvec3@@U2@0@Z 0000000180010384     cs2features.obj
 0002:00000384       $unwind$?net_graphcolor@engine@csgo@@YAXEEEE@Z 0000000180010384     csgo.obj
 0002:00000390       $unwind$?vec_atd@math@@YA?AUvec3@@U2@@Z 0000000180010390     cs2features.obj
 0002:000003ac       $unwind$?vec_min_max@math@@YA_NUvec3@@000M@Z 00000001800103ac     cs2features.obj
 0002:000003ec       $unwind$?run@features@cs2@@YAXXZ 00000001800103ec     cs2features.obj
 0002:00000430       $unwind$?has_target_event@features@cs2@@YAX_K0MUvec2@@Uvec3@@12@Z 0000000180010430     cs2features.obj
 0002:00000454       $unwind$?get_target_angle@features@cs2@@YA?AUvec3@@_KU3@KUvec2@@@Z 0000000180010454     cs2features.obj
 0002:00000474       $unwind$?get_best_target@features@cs2@@YAXH_K0KUvec2@@PEA_K@Z 0000000180010474     cs2features.obj
 0002:000004ac       $unwind$?esp@features@cs2@@YAX_K0Uvec3@@@Z 00000001800104ac     cs2features.obj
 0002:000004e4       $unwind$?get_weapon@player@apex@@YA_K_K@Z 00000001800104e4     apex.obj
 0002:000004e4       $unwind$?get_player@teams@csgo@@YAKKH@Z 00000001800104e4     csgo.obj
 0002:000004f0       $unwind$?contains_player@teams@csgo@@YAHKHH@Z 00000001800104f0     csgo.obj
 0002:00000508       $unwind$?is_valid@player@csgo@@YAHK@Z 0000000180010508     csgo.obj
 0002:00000508       $unwind$?random_number@@YA_K_K0@Z 0000000180010508     csgofeatures.obj
 0002:00000508       $unwind$?init@gdi@@YAHXZ   0000000180010508     gdi.obj
 0002:00000508       $unwind$?PsGetThreadWin32ThreadHook@km@@YA_K_K@Z 0000000180010508     kernel.obj
 0002:00000518       $unwind$?is_visible@player@csgo@@YAHKK@Z 0000000180010518     csgo.obj
 0002:0000052c       $unwind$?get_weapon_handle@player@csgo@@YAKK@Z 000000018001052c     csgo.obj
 0002:00000538       $unwind$?get_eye_position@player@csgo@@YA?AUvec3@@K@Z 0000000180010538     csgo.obj
 0002:0000054c       $unwind$?get_interface@csgo@@YAKKPEBD@Z 000000018001054c     csgo.obj
 0002:00000568       $unwind$?get_convar@csgo@@YAKPEBD@Z 0000000180010568     csgo.obj
 0002:00000584       $unwind$?dump_netvar_tables@csgo@@YAHP6AHPEBDKPEAX@Z1@Z 0000000180010584     csgo.obj
 0002:000005a4       $unwind$?dump_netvars@csgo@@YAKKP6AHPEBDKPEAX@Z1@Z 00000001800105a4     csgo.obj
 0002:000005c4       $unwind$?dump_netvar_table_callback@csgo@@YAHPEBDKPEAX@Z 00000001800105c4     csgo.obj
 0002:000005dc       $unwind$?dump_baseentity_callback@csgo@@YAHPEBDKPEAX@Z 00000001800105dc     csgo.obj
 0002:000005dc       $unwind$?dump_baseplayer_callback@csgo@@YAHPEBDKPEAX@Z 00000001800105dc     csgo.obj
 0002:000005dc       $unwind$?dump_csplayer_callback@csgo@@YAHPEBDKPEAX@Z 00000001800105dc     csgo.obj
 0002:000005f0       $unwind$?dump_baseanimating_callback@csgo@@YAHPEBDKPEAX@Z 00000001800105f0     csgo.obj
 0002:000005f0       $unwind$?hook@km@@YAH_K0PEA_K@Z 00000001800105f0     kernel.obj
 0002:000005f0       $unwind$?EfiGetSystemTable@@YA_J_KPEA_K1@Z 00000001800105f0     main.obj
 0002:00000600       $unwind$?get_weapon_class_0@player@csgo@@YA?AW4WEAPON_CLASS@2@K@Z 0000000180010600     csgo.obj
 0002:0000061c       $unwind$?get_weapon_class_1@player@csgo@@YA?AW4WEAPON_CLASS@2@K@Z 000000018001061c     csgo.obj
 0002:00000630       $unwind$?initialize@csgo@@YAHXZ 0000000180010630     csgo.obj
 0002:0000064c       $unwind$?run@features@csgo@@YAXXZ 000000018001064c     csgofeatures.obj
 0002:0000066c       $unwind$?standalone_rcs@features@csgo@@YAXK@Z 000000018001066c     csgofeatures.obj
 0002:00000688       $unwind$?get_incross_target@features@csgo@@YAKK@Z 0000000180010688     csgofeatures.obj
 0002:000006a0       $unwind$?triggerbot@features@csgo@@YAHKKKW4WEAPON_CLASS@2@@Z 00000001800106a0     csgofeatures.obj
 0002:000006e8       $unwind$?aimbot@features@csgo@@YAXKKW4WEAPON_CLASS@2@KH@Z 00000001800106e8     csgofeatures.obj
 0002:00000724       $unwind$?get_target_angle@features@csgo@@YA?AUvec3@@KU3@K@Z 0000000180010724     csgofeatures.obj
 0002:00000738       $unwind$?get_best_target@features@csgo@@YAKKKPEAK@Z 0000000180010738     csgofeatures.obj
 0002:00000760       $unwind$?esp@features@csgo@@YAXKK@Z 0000000180010760     csgofeatures.obj
 0002:00000790       $unwind$?get_convar@engine@apex@@YA_KPEBD@Z 0000000180010790     apex.obj
 0002:000007ac       $unwind$?get_window_info@engine@apex@@YAHPEAUWINDOW_INFO@2@@Z 00000001800107ac     apex.obj
 0002:000007bc       $unwind$?get_bone_position@player@apex@@YAH_KHPEAUvec3@@@Z 00000001800107bc     apex.obj
 0002:000007d8       $unwind$?get_zoom_fov@weapon@apex@@YAM_K@Z 00000001800107d8     apex.obj
 0002:000007e8       $unwind$?get_float@cvar@apex@@YAM_K@Z 00000001800107e8     apex.obj
 0002:000007f8       $unwind$?initialize@apex@@YAHXZ 00000001800107f8     apex.obj
 0002:00000818       $unwind$?dump_netvars@apex@@YAH_K@Z 0000000180010818     apex.obj
 0002:00000834       $unwind$?get_netvar@apex@@YAH_KPEBD@Z 0000000180010834     apex.obj
 0002:00000854       $unwind$?CalcAngle@math@@YA?AUvec3@@U2@0@Z 0000000180010854     apexfeatures.obj
 0002:00000868       $unwind$?run@features@apex@@YAXXZ 0000000180010868     apexfeatures.obj
 0002:00000898       $unwind$?get_target_angle@features@apex@@YA?AUvec3@@_K0U3@@Z 0000000180010898     apexfeatures.obj
 0002:000008b4       $unwind$?get_best_target@features@apex@@YAX_KPEA_K@Z 00000001800108b4     apexfeatures.obj
 0002:000008e0       $unwind$?esp@features@apex@@YAX_K0Uvec3@@@Z 00000001800108e0     apexfeatures.obj
 0002:0000091c       $unwind$?FindPatternEx@utils@@YA_K_K0PEAEPEAD@Z 000000018001091c     vm.obj
 0002:00000934       $unwind$?process_exists@vm@@YAHPEBD@Z 0000000180010934     vm.obj
 0002:00000950       $unwind$?get_module@vmwin@@YA_KPEAXPEBD@Z 0000000180010950     vm.obj
 0002:00000970       $unwind$?get_module_export@vmwin@@YA_KPEAX_KPEBD@Z 0000000180010970     vm.obj
 0002:00000994       $unwind$?dump_module@vmwin@@YAPEAXPEAX_KW4VM_MODULE_TYPE@@@Z 0000000180010994     vm.obj
 0002:000009b0       $unwind$?scan_pattern@vmwin@@YA_KPEAXPEBD1_K@Z 00000001800109b0     vm.obj
 0002:000009d0       $unwind$?FrameRect@gdi@@YA_NPEAUHDC__@@PEBUtagRECT@@PEAUHBRUSH__@@H@Z 00000001800109d0     gdi.obj
 0002:000009f0       $unwind$?DrawRect@gdi@@YAXPEAXJJJJEEE@Z 00000001800109f0     gdi.obj
 0002:00000a0c       $unwind$?GetModuleEntry@@YA_KPEBG@Z 0000000180010a0c     gdi.obj
 0002:00000a18       $unwind$?GetProcAddressQ@@YA_K_KPEBD@Z 0000000180010a18     gdi.obj
 0002:00000a2c       $unwind$?move@mouse@@YAXJJG@Z 0000000180010a2c     kernel.obj
 0002:00000a38       $unwind$?open@mouse@@YAHXZ 0000000180010a38     kernel.obj
 0002:00000a4c       $unwind$?memcpy_impl@km@@YAHPEAXPEBX_K@Z 0000000180010a4c     kernel.obj
 0002:00000a58       $unwind$ExitBootServicesHook 0000000180010a58     main.obj
 0002:00000a6c       $unwind$AllocatePagesHook  0000000180010a6c     main.obj
 0002:00000a88       $unwind$AllocateImage      0000000180010a88     main.obj
 0002:00000aa8       $unwind$?PressAnyKey@@YAXXZ 0000000180010aa8     main.obj
 0002:00000ab4       $unwind$EfiMain            0000000180010ab4     main.obj
 0002:00000ac4       $unwind$?BlMmMapPhysicalAddressExHook@@YA_JPEA_J_J_KID@Z 0000000180010ac4     main.obj
 0002:00000adc       $unwind$?RtlFindExportedRoutineByName@@YA_K_KPEBD@Z 0000000180010adc     main.obj
 0002:00000af0       $unwind$?GetMemoryAttributesTable@@YAPEAKPEA_K@Z 0000000180010af0     main.obj
 0002:00000b04       $unwind$?FindPattern@@YA_K_KPEAE1@Z 0000000180010b04     utils.obj
 0002:00000b24       $unwind$?FindPatternEx@@YAPEAXPEAE_K00@Z 0000000180010b24     utils.obj
 0002:00000b38       $unwind$?pe_resolve_imports@@YAH_K0@Z 0000000180010b38     utils.obj
 0002:00000b54       $unwind$?GetExportByName@@YA_K_KPEBD@Z 0000000180010b54     utils.obj
 0002:00000b70       $xdatasym$memcpy           0000000180010b70     ntoskrnl:memcpy.obj
 0002:00000b70       $xdatasym$memset           0000000180010b70     ntoskrnl:memset.obj
 0002:00000b78       $xdatasym$__memset_repmovs 0000000180010b78     ntoskrnl:memset.obj
 0002:00000b88       $xdatasym$__memset_query   0000000180010b88     ntoskrnl:memset.obj
 0002:00000b9c       $unwind$__cpu_features_init 0000000180010b9c     ntoskrnl:cpuinfo.obj
 0003:00000000       WPP_RECORDER_INITIALIZED   0000000180011000     mouse.obj
 0003:00000008       WPP_GLOBAL_Control         0000000180011008     mouse.obj
 0003:00000010       ?m_angEyeAngles@netvars@cs2@@3HA 0000000180011010     cs2.obj
 0003:00000088       ?sdl_window@sdl@cs2@@3_KA  0000000180011088     cs2.obj
 0003:00000090       ?sdl_mouse@sdl@cs2@@3_KA   0000000180011090     cs2.obj
 0003:00000098       ?resource@interfaces@cs2@@3_KA 0000000180011098     cs2.obj
 0003:000000a0       ?entity@interfaces@cs2@@3_KA 00000001800110a0     cs2.obj
 0003:000000a8       ?cvar@interfaces@cs2@@3_KA 00000001800110a8     cs2.obj
 0003:000000b0       ?input@interfaces@cs2@@3_KA 00000001800110b0     cs2.obj
 0003:000000b8       ?player@interfaces@cs2@@3_KA 00000001800110b8     cs2.obj
 0003:000000c0       ?local_player@direct@cs2@@3_KA 00000001800110c0     cs2.obj
 0003:000000c8       ?view_angles@direct@cs2@@3_KA 00000001800110c8     cs2.obj
 0003:000000d0       ?view_matrix@direct@cs2@@3_KA 00000001800110d0     cs2.obj
 0003:000000d8       ?button_state@direct@cs2@@3KA 00000001800110d8     cs2.obj
 0003:000000dc       ?m_flFOVSensitivityAdjust@netvars@cs2@@3HA 00000001800110dc     cs2.obj
 0003:000000e0       ?sensitivity@convars@cs2@@3_KA 00000001800110e0     cs2.obj
 0003:000000e8       ?mp_teammates_are_enemies@convars@cs2@@3_KA 00000001800110e8     cs2.obj
 0003:000000f0       ?cl_crosshairalpha@convars@cs2@@3_KA 00000001800110f0     cs2.obj
 0003:000000f8       ?m_pGameSceneNode@netvars@cs2@@3HA 00000001800110f8     cs2.obj
 0003:000000fc       ?m_iHealth@netvars@cs2@@3HA 00000001800110fc     cs2.obj
 0003:00000100       ?m_lifeState@netvars@cs2@@3HA 0000000180011100     cs2.obj
 0003:00000104       ?m_iTeamNum@netvars@cs2@@3HA 0000000180011104     cs2.obj
 0003:00000108       ?m_vecViewOffset@netvars@cs2@@3HA 0000000180011108     cs2.obj
 0003:0000010c       ?m_vecOrigin@netvars@cs2@@3HA 000000018001110c     cs2.obj
 0003:00000110       ?m_bDormant@netvars@cs2@@3HA 0000000180011110     cs2.obj
 0003:00000114       ?m_hPawn@netvars@cs2@@3HA  0000000180011114     cs2.obj
 0003:00000118       ?m_modelState@netvars@cs2@@3HA 0000000180011118     cs2.obj
 0003:0000011c       ?m_aimPunchCache@netvars@cs2@@3HA 000000018001111c     cs2.obj
 0003:00000120       ?m_iShotsFired@netvars@cs2@@3HA 0000000180011120     cs2.obj
 0003:00000124       ?m_vOldOrigin@netvars@cs2@@3HA 0000000180011124     cs2.obj
 0003:00000128       ?m_pClippingWeapon@netvars@cs2@@3HA 0000000180011128     cs2.obj
 0003:0000012c       ?v_angle@netvars@cs2@@3HA  000000018001112c     cs2.obj
 0003:00000130       ?m_bIsDefusing@netvars@cs2@@3HA 0000000180011130     cs2.obj
 0003:00000134       ?m_bPawnHasDefuser@netvars@cs2@@3HA 0000000180011134     cs2.obj
 0003:00000138       ?m_hActiveWeapon@netvars@cs2@@3HA 0000000180011138     cs2.obj
 0003:0000013c       ?m_pWeaponServices@netvars@cs2@@3HA 000000018001113c     cs2.obj
 0003:00000140       ?m_entitySpottedState@netvars@cs2@@3HA 0000000180011140     cs2.obj
 0003:00000144       ?m_bSpottedByMask@netvars@cs2@@3HA 0000000180011144     cs2.obj
 0003:00000148       ?offset@?1??get_current_ms@engine@cs2@@YAKXZ@4KA 0000000180011148     cs2.obj
 0003:0000014c       ?$S1@?1??get_current_ms@engine@cs2@@YAKXZ@4IA 000000018001114c     cs2.obj
 0003:00000160       ?mouse_down_ms@features@cs2@@3KA 0000000180011160     cs2features.obj
 0003:00000164       ?mouse_up_ms@features@cs2@@3KA 0000000180011164     cs2features.obj
 0003:00000168       ?rcs_old_punch@features@cs2@@3Uvec2@@A 0000000180011168     cs2features.obj
 0003:00000170       ?aimbot_active@features@cs2@@3HA 0000000180011170     cs2features.obj
 0003:00000174       ?aimbot_bone@features@cs2@@3HA 0000000180011174     cs2features.obj
 0003:00000178       ?aimbot_target@features@cs2@@3_KA 0000000180011178     cs2features.obj
 0003:00000180       ?aimbot_ms@features@cs2@@3KA 0000000180011180     cs2features.obj
 0003:00000184       ?event_state@features@cs2@@3HA 0000000180011184     cs2features.obj
 0003:00000188       ?rcs@config@@3HA           0000000180011188     cs2features.obj
 0003:0000018c       ?aimbot_enabled@config@@3HA 000000018001118c     cs2features.obj
 0003:00000190       ?aimbot_button@config@@3KA 0000000180011190     cs2features.obj
 0003:00000194       ?aimbot_fov@config@@3MA    0000000180011194     cs2features.obj
 0003:00000198       ?aimbot_smooth@config@@3MA 0000000180011198     cs2features.obj
 0003:0000019c       ?aimbot_multibone@config@@3HA 000000018001119c     cs2features.obj
 0003:000001a0       ?triggerbot_button@config@@3KA 00000001800111a0     cs2features.obj
 0003:000001a4       ?visuals_enabled@config@@3HA 00000001800111a4     cs2features.obj
 0003:000001b4       ?m_ButtonState@input@csgo@@3KA 00000001800111b4     csgo.obj
 0003:000001b8       ?m_nLastPollTick@input@csgo@@3KA 00000001800111b8     csgo.obj
 0003:000001bc       ?m_mouseRawAccum@input@csgo@@3KA 00000001800111bc     csgo.obj
 0003:000001c0       ?IInputSystem@csgo@@3KA    00000001800111c0     csgo.obj
 0003:000001c4       ?VEngineCvar@csgo@@3KA     00000001800111c4     csgo.obj
 0003:000001c8       ?sensitivity@csgo@@3KA     00000001800111c8     csgo.obj
 0003:000001cc       ?cl_crosshairalpha@csgo@@3KA 00000001800111cc     csgo.obj
 0003:000001d0       ?net_graphproportionalfont@csgo@@3KA 00000001800111d0     csgo.obj
 0003:000001d4       ?mp_teammates_are_enemies@csgo@@3KA 00000001800111d4     csgo.obj
 0003:000001d8       ?C_BasePlayer@csgo@@3KA    00000001800111d8     csgo.obj
 0003:000001dc       ?g_TeamCount@csgo@@3KA     00000001800111dc     csgo.obj
 0003:000001e0       ?g_Teams@csgo@@3KA         00000001800111e0     csgo.obj
 0003:000001e4       ?dwViewMatrix@csgo@@3KA    00000001800111e4     csgo.obj
 0003:000001e8       ?dwScreenSize@csgo@@3KA    00000001800111e8     csgo.obj
 0003:000001ec       ?dwViewAngles@csgo@@3KA    00000001800111ec     csgo.obj
 0003:000001f0       ?VClientEntityList@csgo@@3KA 00000001800111f0     csgo.obj
 0003:000001f4       ?dwGetAllClasses@csgo@@3KA 00000001800111f4     csgo.obj
 0003:000001f8       ?dwClientState@csgo@@3KA   00000001800111f8     csgo.obj
 0003:000001fc       ?g_pNetGraphPanel@csgo@@3KA 00000001800111fc     csgo.obj
 0003:00000200       ?netvar_status@csgo@@3HA   0000000180011200     csgo.obj
 0003:00000204       ?m_iHealth@csgo@@3KA       0000000180011204     csgo.obj
 0003:00000208       ?m_vecViewOffset@csgo@@3KA 0000000180011208     csgo.obj
 0003:0000020c       ?m_lifeState@csgo@@3KA     000000018001120c     csgo.obj
 0003:00000210       ?m_vecPunch@csgo@@3KA      0000000180011210     csgo.obj
 0003:00000214       ?m_iFOV@csgo@@3KA          0000000180011214     csgo.obj
 0003:00000218       ?m_vecOldViewAngles@csgo@@3KA 0000000180011218     csgo.obj
 0003:0000021c       ?m_iTeamNum@csgo@@3KA      000000018001121c     csgo.obj
 0003:00000220       ?m_bSpottedByMask@csgo@@3KA 0000000180011220     csgo.obj
 0003:00000224       ?m_vecOrigin@csgo@@3KA     0000000180011224     csgo.obj
 0003:00000228       ?m_hActiveWeapon@csgo@@3KA 0000000180011228     csgo.obj
 0003:0000022c       ?m_iShotsFired@csgo@@3KA   000000018001122c     csgo.obj
 0003:00000230       ?m_iCrossHairID@csgo@@3KA  0000000180011230     csgo.obj
 0003:00000234       ?m_bHasDefuser@csgo@@3KA   0000000180011234     csgo.obj
 0003:00000238       ?m_bIsDefusing@csgo@@3KA   0000000180011238     csgo.obj
 0003:0000023c       ?m_dwBoneMatrix@csgo@@3KA  000000018001123c     csgo.obj
 0003:00000240       ?m_viewangles@features@csgo@@3Uvec2@@A 0000000180011240     csgofeatures.obj
 0003:00000248       ?m_rcs_old_punch@features@csgo@@3Uvec2@@A 0000000180011248     csgofeatures.obj
 0003:00000250       ?m_rcs_old_temp_punch_x@features@csgo@@3MA 0000000180011250     csgofeatures.obj
 0003:00000254       ?m_rcs_old_shots_fired@features@csgo@@3KA 0000000180011254     csgofeatures.obj
 0003:00000258       ?m_aimbot_old_temp_punch_x@features@csgo@@3MA 0000000180011258     csgofeatures.obj
 0003:0000025c       ?m_aimbot_old_shots_fired@features@csgo@@3KA 000000018001125c     csgofeatures.obj
 0003:00000260       ?m_aimbot_active@features@csgo@@3HA 0000000180011260     csgofeatures.obj
 0003:00000264       ?m_previous_button@features@csgo@@3HA 0000000180011264     csgofeatures.obj
 0003:00000268       ?m_weapon_class@features@csgo@@3W4WEAPON_CLASS@2@A 0000000180011268     csgofeatures.obj
 0003:0000026c       ?m_previous_target@features@csgo@@3KA 000000018001126c     csgofeatures.obj
 0003:00000270       ?m_previous_team@features@csgo@@3KA 0000000180011270     csgofeatures.obj
 0003:00000274       ?m_previous_tick@features@csgo@@3KA 0000000180011274     csgofeatures.obj
 0003:00000278       ?m_mouse_down_tick@features@csgo@@3_KA 0000000180011278     csgofeatures.obj
 0003:00000280       ?m_mouse_click_ticks@features@csgo@@3_KA 0000000180011280     csgofeatures.obj
 0003:00000288       ?font_is_set@features@csgo@@3HA 0000000180011288     csgofeatures.obj
 0003:0000028c       ?rcs@config@@3HA           000000018001128c     csgofeatures.obj
 0003:00000290       ?aimbot_enabled@config@@3HA 0000000180011290     csgofeatures.obj
 0003:00000294       ?aimbot_button@config@@3KA 0000000180011294     csgofeatures.obj
 0003:00000298       ?aimbot_fov@config@@3MA    0000000180011298     csgofeatures.obj
 0003:0000029c       ?aimbot_smooth@config@@3MA 000000018001129c     csgofeatures.obj
 0003:000002a0       ?aimbot_multibone@config@@3HA 00000001800112a0     csgofeatures.obj
 0003:000002a4       ?triggerbot_button@config@@3KA 00000001800112a4     csgofeatures.obj
 0003:000002a8       ?visuals_enabled@config@@3HA 00000001800112a8     csgofeatures.obj
 0003:000002b8       ?IClientEntityList@interfaces@apex@@3_KA 00000001800112b8     apex.obj
 0003:000002c0       ?cvar@interfaces@apex@@3_KA 00000001800112c0     apex.obj
 0003:000002c8       ?input@interfaces@apex@@3_KA 00000001800112c8     apex.obj
 0003:000002d0       ?engine@interfaces@apex@@3_KA 00000001800112d0     apex.obj
 0003:000002d8       ?window_info@interfaces@apex@@3_KA 00000001800112d8     apex.obj
 0003:000002e0       ?C_BasePlayer@direct@apex@@3_KA 00000001800112e0     apex.obj
 0003:000002e8       ?view_render@direct@apex@@3_KA 00000001800112e8     apex.obj
 0003:000002f0       ?view_matrix@direct@apex@@3_KA 00000001800112f0     apex.obj
 0003:000002f8       ?camera_origin@direct@apex@@3_KA 00000001800112f8     apex.obj
 0003:00000300       ?sensitivity@convars@apex@@3_KA 0000000180011300     apex.obj
 0003:00000308       ?gamepad_aim_speed@convars@apex@@3_KA 0000000180011308     apex.obj
 0003:00000310       ?m_iHealth@netvars@apex@@3HA 0000000180011310     apex.obj
 0003:00000314       ?m_iMaxHealth@netvars@apex@@3HA 0000000180011314     apex.obj
 0003:00000318       ?m_iViewAngles@netvars@apex@@3HA 0000000180011318     apex.obj
 0003:0000031c       ?m_bZooming@netvars@apex@@3HA 000000018001131c     apex.obj
 0003:00000320       ?m_lifeState@netvars@apex@@3HA 0000000180011320     apex.obj
 0003:00000324       ?m_iCameraAngles@netvars@apex@@3HA 0000000180011324     apex.obj
 0003:00000328       ?m_iTeamNum@netvars@apex@@3HA 0000000180011328     apex.obj
 0003:0000032c       ?m_iName@netvars@apex@@3HA 000000018001132c     apex.obj
 0003:00000330       ?m_vecAbsOrigin@netvars@apex@@3HA 0000000180011330     apex.obj
 0003:00000334       ?m_iWeapon@netvars@apex@@3HA 0000000180011334     apex.obj
 0003:00000338       ?m_iBoneMatrix@netvars@apex@@3HA 0000000180011338     apex.obj
 0003:0000033c       ?m_playerData@netvars@apex@@3HA 000000018001133c     apex.obj
 0003:00000340       ?visible_time@netvars@apex@@3HA 0000000180011340     apex.obj
 0003:00000344       ?projectile_speed@netvars@apex@@3HA 0000000180011344     apex.obj
 0003:00000348       ?projectile_gravity@netvars@apex@@3HA 0000000180011348     apex.obj
 0003:0000034c       ?init_status@?1??dump_netvars@apex@@YAH_K@Z@4HA 000000018001134c     apex.obj
 0003:00000350       ?b_aimbot_button@features@apex@@3HA 0000000180011350     apexfeatures.obj
 0003:00000354       ?firing_range@features@apex@@3HA 0000000180011354     apexfeatures.obj
 0003:00000358       ?aimbot_active@features@apex@@3HA 0000000180011358     apexfeatures.obj
 0003:0000035c       ?aimbot_bone@features@apex@@3HA 000000018001135c     apexfeatures.obj
 0003:00000360       ?aimbot_target@features@apex@@3_KA 0000000180011360     apexfeatures.obj
 0003:00000368       ?aimbot_tick@features@apex@@3KA 0000000180011368     apexfeatures.obj
 0003:0000036c       ?bullet_speed@features@apex@@3MA 000000018001136c     apexfeatures.obj
 0003:00000370       ?event_state@features@apex@@3HA 0000000180011370     apexfeatures.obj
 0003:00000374       ?aimbot_enabled@config@@3HA 0000000180011374     apexfeatures.obj
 0003:00000378       ?aimbot_button@config@@3KA 0000000180011378     apexfeatures.obj
 0003:0000037c       ?aimbot_fov@config@@3MA    000000018001137c     apexfeatures.obj
 0003:00000380       ?view_matrix@features@apex@@3Uview_matrix_t@@A 0000000180011380     apexfeatures.obj
 0003:000003c0       ?aimbot_smooth@config@@3MA 00000001800113c0     apexfeatures.obj
 0003:000003c4       ?aimbot_multibone@config@@3HA 00000001800113c4     apexfeatures.obj
 0003:000003c8       ?visuals_enabled@config@@3HA 00000001800113c8     apexfeatures.obj
 0005:000002e6       .idata$6                   00000001800132e6     ntoskrnl:ntoskrnl.exe
